(dp1
S'keyspace'
p2
S'd2df32525a5e11e1af170800277fa8d9'
p3
sS'cols'
p4
(lp5
(S'b57729c85a6211e18bde0800277fa8d9'
p6
ccollections
OrderedDict
p7
((lp8
(lp9
S'b5772b805a6211e18bde0800277fa8d9'
p10
aS'b5772dd85a6211e18bde0800277fa8d9'
p11
aatRp12
tp13
a(S'b565cbce5a6211e18bde0800277fa8d9'
p14
g7
((lp15
(lp16
S'b565cdae5a6211e18bde0800277fa8d9'
p17
aS'b565cf345a6211e18bde0800277fa8d9'
p18
aatRp19
tp20
a(S'ade2d0a45a9411e1b4b20800277fa8d9'
p21
g7
((lp22
(lp23
S'ade2d23e5a9411e1b4b20800277fa8d9'
p24
aS'ade2d3ba5a9411e1b4b20800277fa8d9'
p25
aatRp26
tp27
a(S'b598f4ea5a6211e18bde0800277fa8d9'
p28
g7
((lp29
(lp30
S'b598f4eb5a6211e18bde0800277fa8d9'
p31
aS'b598f4ec5a6211e18bde0800277fa8d9'
p32
aatRp33
tp34
a(S'adc634da5a9411e1b4b20800277fa8d9'
p35
g7
((lp36
(lp37
S'adc6367e5a9411e1b4b20800277fa8d9'
p38
aS'adc637be5a9411e1b4b20800277fa8d9'
p39
aatRp40
tp41
a(S'ade053245a9411e1b4b20800277fa8d9'
p42
g7
((lp43
(lp44
S'ade056265a9411e1b4b20800277fa8d9'
p45
aS'ade0577a5a9411e1b4b20800277fa8d9'
p46
aatRp47
tp48
a(S'b5992ba45a6211e18bde0800277fa8d9'
p49
g7
((lp50
(lp51
S'b5992bb85a6211e18bde0800277fa8d9'
p52
aS'b5992e9c5a6211e18bde0800277fa8d9'
p53
aatRp54
tp55
a(S'ae10fbdc5a9411e1b4b20800277fa8d9'
p56
g7
((lp57
(lp58
S'ae10fd6c5a9411e1b4b20800277fa8d9'
p59
aS'ae10fea25a9411e1b4b20800277fa8d9'
p60
aatRp61
tp62
a(S'adf021c85a9411e1b4b20800277fa8d9'
p63
g7
((lp64
(lp65
S'adf023445a9411e1b4b20800277fa8d9'
p66
aS'adf024845a9411e1b4b20800277fa8d9'
p67
aatRp68
tp69
a(S'b5edd24e5a6211e18bde0800277fa8d9'
p70
g7
((lp71
(lp72
S'b5edd4885a6211e18bde0800277fa8d9'
p73
aS'b5edd62c5a6211e18bde0800277fa8d9'
p74
aatRp75
tp76
a(S'b57a78125a6211e18bde0800277fa8d9'
p77
g7
((lp78
(lp79
S'b57a79f25a6211e18bde0800277fa8d9'
p80
aS'b57a7b3c5a6211e18bde0800277fa8d9'
p81
aatRp82
tp83
a(S'b5f484c25a6211e18bde0800277fa8d9'
p84
g7
((lp85
(lp86
S'b5f486a25a6211e18bde0800277fa8d9'
p87
aS'b5f488325a6211e18bde0800277fa8d9'
p88
aatRp89
tp90
a(S'd805adc25a6011e1b4d80800277fa8d9'
p91
g7
((lp92
(lp93
S'd805af665a6011e1b4d80800277fa8d9'
p94
aS'd805b0c45a6011e1b4d80800277fa8d9'
p95
aatRp96
tp97
a(S'b5a4be9c5a6211e18bde0800277fa8d9'
p98
g7
((lp99
(lp100
S'b5a4c04a5a6211e18bde0800277fa8d9'
p101
aS'b5a4c1b25a6211e18bde0800277fa8d9'
p102
aatRp103
tp104
a(S'adca115e5a9411e1b4b20800277fa8d9'
p105
g7
((lp106
(lp107
S'adca13485a9411e1b4b20800277fa8d9'
p108
aS'adca14925a9411e1b4b20800277fa8d9'
p109
aatRp110
tp111
a(S'd7f2504c5a6011e1b4d80800277fa8d9'
p112
g7
((lp113
(lp114
S'd7f2529a5a6011e1b4d80800277fa8d9'
p115
aS'd7f254ac5a6011e1b4d80800277fa8d9'
p116
aatRp117
tp118
a(S'b5ba71425a6211e18bde0800277fa8d9'
p119
g7
((lp120
(lp121
S'b5ba73725a6211e18bde0800277fa8d9'
p122
aS'b5ba7a0c5a6211e18bde0800277fa8d9'
p123
aatRp124
tp125
a(S'addfb0ea5a9411e1b4b20800277fa8d9'
p126
g7
((lp127
(lp128
S'addfb2705a9411e1b4b20800277fa8d9'
p129
aS'addfb3b05a9411e1b4b20800277fa8d9'
p130
aatRp131
tp132
a(S'b576a7965a6211e18bde0800277fa8d9'
p133
g7
((lp134
(lp135
S'b576a9265a6211e18bde0800277fa8d9'
p136
aS'b576aa7a5a6211e18bde0800277fa8d9'
p137
aatRp138
tp139
a(S'b560002c5a6211e18bde0800277fa8d9'
p140
g7
((lp141
(lp142
S'b56003245a6211e18bde0800277fa8d9'
p143
aS'b56005d65a6211e18bde0800277fa8d9'
p144
aatRp145
tp146
a(S'b59380be5a6211e18bde0800277fa8d9'
p147
g7
((lp148
(lp149
S'b59382805a6211e18bde0800277fa8d9'
p150
aS'b59384105a6211e18bde0800277fa8d9'
p151
aatRp152
tp153
a(S'add3daae5a9411e1b4b20800277fa8d9'
p154
g7
((lp155
(lp156
S'add3dc165a9411e1b4b20800277fa8d9'
p157
aS'add3dd4c5a9411e1b4b20800277fa8d9'
p158
aatRp159
tp160
a(S'b5d2b0905a6211e18bde0800277fa8d9'
p161
g7
((lp162
(lp163
S'b5d2b2a25a6211e18bde0800277fa8d9'
p164
aS'b5d2b43c5a6211e18bde0800277fa8d9'
p165
aatRp166
tp167
asS'columnfamily'
p168
S'40b3d6485a5f11e187960800277fa8d9'
p169
s.