(dp1
S'keyspace'
p2
S'95cf427c5a5d11e1a8030800277fa8d9'
p3
sS'cols'
p4
(lp5
(S'bc116c4e5a9411e1b4b20800277fa8d9'
p6
ccollections
OrderedDict
p7
((lp8
(lp9
S'bc116dd45a9411e1b4b20800277fa8d9'
p10
aS'bc116f1e5a9411e1b4b20800277fa8d9'
p11
aatRp12
tp13
a(S'c37b9ed25a6211e18bde0800277fa8d9'
p14
g7
((lp15
(lp16
S'c37ba0445a6211e18bde0800277fa8d9'
p17
aS'c37ba18e5a6211e18bde0800277fa8d9'
p18
aatRp19
tp20
a(S'bc1ff5205a9411e1b4b20800277fa8d9'
p21
g7
((lp22
(lp23
S'bc1ff6ba5a9411e1b4b20800277fa8d9'
p24
aS'bc1ff8045a9411e1b4b20800277fa8d9'
p25
aatRp26
tp27
a(S'e61a98325a6011e1b4d80800277fa8d9'
p28
g7
((lp29
(lp30
S'e61a99cc5a6011e1b4d80800277fa8d9'
p31
aS'e61a9b2a5a6011e1b4d80800277fa8d9'
p32
aatRp33
tp34
a(S'bc0cbf1e5a9411e1b4b20800277fa8d9'
p35
g7
((lp36
(lp37
S'bc0cc0865a9411e1b4b20800277fa8d9'
p38
aS'bc0cc1bc5a9411e1b4b20800277fa8d9'
p39
aatRp40
tp41
a(S'c36acb485a6211e18bde0800277fa8d9'
p42
g7
((lp43
(lp44
S'c36acd285a6211e18bde0800277fa8d9'
p45
aS'c36aceae5a6211e18bde0800277fa8d9'
p46
aatRp47
tp48
a(S'e61d234a5a6011e1b4d80800277fa8d9'
p49
g7
((lp50
(lp51
S'e61d234b5a6011e1b4d80800277fa8d9'
p52
aS'e61d23fe5a6011e1b4d80800277fa8d9'
p53
aatRp54
tp55
a(S'c377fb105a6211e18bde0800277fa8d9'
p56
g7
((lp57
(lp58
S'c377fcb45a6211e18bde0800277fa8d9'
p59
aS'c377fe085a6211e18bde0800277fa8d9'
p60
aatRp61
tp62
a(S'e60cc9465a6011e1b4d80800277fa8d9'
p63
g7
((lp64
(lp65
S'e60ccb1c5a6011e1b4d80800277fa8d9'
p66
aS'e60cccfc5a6011e1b4d80800277fa8d9'
p67
aatRp68
tp69
a(S'bc0647245a9411e1b4b20800277fa8d9'
p70
g7
((lp71
(lp72
S'bc06488c5a9411e1b4b20800277fa8d9'
p73
aS'bc0649c25a9411e1b4b20800277fa8d9'
p74
aatRp75
tp76
a(S'c387fe0c5a6211e18bde0800277fa8d9'
p77
g7
((lp78
(lp79
S'c387ffb05a6211e18bde0800277fa8d9'
p80
aS'c38801185a6211e18bde0800277fa8d9'
p81
aatRp82
tp83
a(S'c37fcb2e5a6211e18bde0800277fa8d9'
p84
g7
((lp85
(lp86
S'c37fccfa5a6211e18bde0800277fa8d9'
p87
aS'c37fce765a6211e18bde0800277fa8d9'
p88
aatRp89
tp90
a(S'c372454e5a6211e18bde0800277fa8d9'
p91
g7
((lp92
(lp93
S'c37246de5a6211e18bde0800277fa8d9'
p94
aS'c372483c5a6211e18bde0800277fa8d9'
p95
aatRp96
tp97
a(S'e5bdf44c5a6011e1b4d80800277fa8d9'
p98
g7
((lp99
(lp100
S'e5bdf5e65a6011e1b4d80800277fa8d9'
p101
aS'e5bdf7445a6011e1b4d80800277fa8d9'
p102
aatRp103
tp104
a(S'c376d6405a6211e18bde0800277fa8d9'
p105
g7
((lp106
(lp107
S'c376d7e45a6211e18bde0800277fa8d9'
p108
aS'c376d9425a6211e18bde0800277fa8d9'
p109
aatRp110
tp111
a(S'c3a55fce5a6211e18bde0800277fa8d9'
p112
g7
((lp113
(lp114
S'c3a5615e5a6211e18bde0800277fa8d9'
p115
aS'c3a562bc5a6211e18bde0800277fa8d9'
p116
aatRp117
tp118
a(S'bc2d01705a9411e1b4b20800277fa8d9'
p119
g7
((lp120
(lp121
S'bc2d02d85a9411e1b4b20800277fa8d9'
p122
aS'bc2d04045a9411e1b4b20800277fa8d9'
p123
aatRp124
tp125
a(S'c38122765a6211e18bde0800277fa8d9'
p126
g7
((lp127
(lp128
S'c38124105a6211e18bde0800277fa8d9'
p129
aS'c381256e5a6211e18bde0800277fa8d9'
p130
aatRp131
tp132
a(S'e622d6e65a6011e1b4d80800277fa8d9'
p133
g7
((lp134
(lp135
S'e622d8765a6011e1b4d80800277fa8d9'
p136
aS'e622d9ca5a6011e1b4d80800277fa8d9'
p137
aatRp138
tp139
a(S'c398f7665a6211e18bde0800277fa8d9'
p140
g7
((lp141
(lp142
S'c398f9645a6211e18bde0800277fa8d9'
p143
aS'c398fbe45a6211e18bde0800277fa8d9'
p144
aatRp145
tp146
a(S'e5fbbd0e5a6011e1b4d80800277fa8d9'
p147
g7
((lp148
(lp149
S'e5fbbf025a6011e1b4d80800277fa8d9'
p150
aS'e5fbc0b05a6011e1b4d80800277fa8d9'
p151
aatRp152
tp153
a(S'e5fda13c5a6011e1b4d80800277fa8d9'
p154
g7
((lp155
(lp156
S'e5fda2b85a6011e1b4d80800277fa8d9'
p157
aS'e5fda3f85a6011e1b4d80800277fa8d9'
p158
aatRp159
tp160
a(S'bbff6b8e5a9411e1b4b20800277fa8d9'
p161
g7
((lp162
(lp163
S'bbff6d0a5a9411e1b4b20800277fa8d9'
p164
aS'bbff6e545a9411e1b4b20800277fa8d9'
p165
aatRp166
tp167
a(S'bbf4409c5a9411e1b4b20800277fa8d9'
p168
g7
((lp169
(lp170
S'bbf440f65a9411e1b4b20800277fa8d9'
p171
aS'bbf4429a5a9411e1b4b20800277fa8d9'
p172
aatRp173
tp174
a(S'bbfbdabe5a9411e1b4b20800277fa8d9'
p175
g7
((lp176
(lp177
S'bbfbdd345a9411e1b4b20800277fa8d9'
p178
aS'bbfbde885a9411e1b4b20800277fa8d9'
p179
aatRp180
tp181
a(S'e6114aa25a6011e1b4d80800277fa8d9'
p182
g7
((lp183
(lp184
S'e6114c465a6011e1b4d80800277fa8d9'
p185
aS'e6114dcc5a6011e1b4d80800277fa8d9'
p186
aatRp187
tp188
a(S'c36eaad85a6211e18bde0800277fa8d9'
p189
g7
((lp190
(lp191
S'c36ead6c5a6211e18bde0800277fa8d9'
p192
aS'c36eaf105a6211e18bde0800277fa8d9'
p193
aatRp194
tp195
a(S'e5d588505a6011e1b4d80800277fa8d9'
p196
g7
((lp197
(lp198
S'e5d589fe5a6011e1b4d80800277fa8d9'
p199
aS'e5d58b5c5a6011e1b4d80800277fa8d9'
p200
aatRp201
tp202
a(S'c3a04d2c5a6211e18bde0800277fa8d9'
p203
g7
((lp204
(lp205
S'c3a0502e5a6211e18bde0800277fa8d9'
p206
aS'c3a052c25a6211e18bde0800277fa8d9'
p207
aatRp208
tp209
a(S'bc05fff85a9411e1b4b20800277fa8d9'
p210
g7
((lp211
(lp212
S'bc06016a5a9411e1b4b20800277fa8d9'
p213
aS'bc06039a5a9411e1b4b20800277fa8d9'
p214
aatRp215
tp216
a(S'c382d4405a6211e18bde0800277fa8d9'
p217
g7
((lp218
(lp219
S'c382d5d05a6211e18bde0800277fa8d9'
p220
aS'c382d68e5a6211e18bde0800277fa8d9'
p221
aatRp222
tp223
a(S'c3768e385a6211e18bde0800277fa8d9'
p224
g7
((lp225
(lp226
S'c3768fdc5a6211e18bde0800277fa8d9'
p227
aS'c37691305a6211e18bde0800277fa8d9'
p228
aatRp229
tp230
a(S'c3891ba25a6211e18bde0800277fa8d9'
p231
g7
((lp232
(lp233
S'c3891d5a5a6211e18bde0800277fa8d9'
p234
aS'c3891ecc5a6211e18bde0800277fa8d9'
p235
aatRp236
tp237
a(S'e5d135205a6011e1b4d80800277fa8d9'
p238
g7
((lp239
(lp240
S'e5d136d85a6011e1b4d80800277fa8d9'
p241
aS'e5d1384a5a6011e1b4d80800277fa8d9'
p242
aatRp243
tp244
a(S'c361a4965a6211e18bde0800277fa8d9'
p245
g7
((lp246
(lp247
S'c361a75c5a6211e18bde0800277fa8d9'
p248
aS'c361a8ec5a6211e18bde0800277fa8d9'
p249
aatRp250
tp251
a(S'e5bb8d1a5a6011e1b4d80800277fa8d9'
p252
g7
((lp253
(lp254
S'e5bb8f045a6011e1b4d80800277fa8d9'
p255
aS'e5bb90b25a6011e1b4d80800277fa8d9'
p256
aatRp257
tp258
a(S'bc2b24185a9411e1b4b20800277fa8d9'
p259
g7
((lp260
(lp261
S'bc2b25b25a9411e1b4b20800277fa8d9'
p262
aS'bc2b27065a9411e1b4b20800277fa8d9'
p263
aatRp264
tp265
a(S'c38aa6c05a6211e18bde0800277fa8d9'
p266
g7
((lp267
(lp268
S'c38aa8645a6211e18bde0800277fa8d9'
p269
aS'c38aa9cc5a6211e18bde0800277fa8d9'
p270
aatRp271
tp272
a(S'bc06a9265a9411e1b4b20800277fa8d9'
p273
g7
((lp274
(lp275
S'bc06aa985a9411e1b4b20800277fa8d9'
p276
aS'bc06ac785a9411e1b4b20800277fa8d9'
p277
aatRp278
tp279
a(S'c3a76c4c5a6211e18bde0800277fa8d9'
p280
g7
((lp281
(lp282
S'c3a76e2c5a6211e18bde0800277fa8d9'
p283
aS'c3a76fda5a6211e18bde0800277fa8d9'
p284
aatRp285
tp286
a(S'bbeeedc25a9411e1b4b20800277fa8d9'
p287
g7
((lp288
(lp289
S'bbeeef525a9411e1b4b20800277fa8d9'
p290
aS'bbeef09c5a9411e1b4b20800277fa8d9'
p291
aatRp292
tp293
a(S'e5ef1b305a6011e1b4d80800277fa8d9'
p294
g7
((lp295
(lp296
S'e5ef1d065a6011e1b4d80800277fa8d9'
p297
aS'e5ef1eb45a6011e1b4d80800277fa8d9'
p298
aatRp299
tp300
a(S'e60ed6b45a6011e1b4d80800277fa8d9'
p301
g7
((lp302
(lp303
S'e60ed88a5a6011e1b4d80800277fa8d9'
p304
aS'e60eda105a6011e1b4d80800277fa8d9'
p305
aatRp306
tp307
a(S'c3941e1c5a6211e18bde0800277fa8d9'
p308
g7
((lp309
(lp310
S'c39420565a6211e18bde0800277fa8d9'
p311
aS'c39421d25a6211e18bde0800277fa8d9'
p312
aatRp313
tp314
a(S'bc31e4f65a9411e1b4b20800277fa8d9'
p315
g7
((lp316
(lp317
S'bc31e6725a9411e1b4b20800277fa8d9'
p318
aS'bc31e7a85a9411e1b4b20800277fa8d9'
p319
aatRp320
tp321
a(S'e6053c8a5a6011e1b4d80800277fa8d9'
p322
g7
((lp323
(lp324
S'e6053e1a5a6011e1b4d80800277fa8d9'
p325
aS'e6053f645a6011e1b4d80800277fa8d9'
p326
aatRp327
tp328
a(S'e5cf74b05a6011e1b4d80800277fa8d9'
p329
g7
((lp330
(lp331
S'e5cf76b85a6011e1b4d80800277fa8d9'
p332
aS'e5cf78485a6011e1b4d80800277fa8d9'
p333
aatRp334
tp335
a(S'bc1a0f525a9411e1b4b20800277fa8d9'
p336
g7
((lp337
(lp338
S'bc1a110a5a9411e1b4b20800277fa8d9'
p339
aS'bc1a138a5a9411e1b4b20800277fa8d9'
p340
aatRp341
tp342
a(S'c37535565a6211e18bde0800277fa8d9'
p343
g7
((lp344
(lp345
S'c37537185a6211e18bde0800277fa8d9'
p346
aS'c37538765a6211e18bde0800277fa8d9'
p347
aatRp348
tp349
a(S'bc1983205a9411e1b4b20800277fa8d9'
p350
g7
((lp351
(lp352
S'bc1984b05a9411e1b4b20800277fa8d9'
p353
aS'bc1985fa5a9411e1b4b20800277fa8d9'
p354
aatRp355
tp356
a(S'c3a83f285a6211e18bde0800277fa8d9'
p357
g7
((lp358
(lp359
S'c3a840b85a6211e18bde0800277fa8d9'
p360
aS'c3a8420c5a6211e18bde0800277fa8d9'
p361
aatRp362
tp363
a(S'e5ed0cc85a6011e1b4d80800277fa8d9'
p364
g7
((lp365
(lp366
S'e5ed0e625a6011e1b4d80800277fa8d9'
p367
aS'e5ed0fb65a6011e1b4d80800277fa8d9'
p368
aatRp369
tp370
a(S'c368520a5a6211e18bde0800277fa8d9'
p371
g7
((lp372
(lp373
S'c368539a5a6211e18bde0800277fa8d9'
p374
aS'c36854e45a6211e18bde0800277fa8d9'
p375
aatRp376
tp377
a(S'c368b7c25a6211e18bde0800277fa8d9'
p378
g7
((lp379
(lp380
S'c368b9705a6211e18bde0800277fa8d9'
p381
aS'c368bb6e5a6211e18bde0800277fa8d9'
p382
aatRp383
tp384
a(S'c3a68c5a5a6211e18bde0800277fa8d9'
p385
g7
((lp386
(lp387
S'c3a68dea5a6211e18bde0800277fa8d9'
p388
aS'c3a68f485a6211e18bde0800277fa8d9'
p389
aatRp390
tp391
a(S'bc0d18c45a9411e1b4b20800277fa8d9'
p392
g7
((lp393
(lp394
S'bc0d1a5e5a9411e1b4b20800277fa8d9'
p395
aS'bc0d1cb65a9411e1b4b20800277fa8d9'
p396
aatRp397
tp398
a(S'c36e45f25a6211e18bde0800277fa8d9'
p399
g7
((lp400
(lp401
S'c36e47965a6211e18bde0800277fa8d9'
p402
aS'c36e4b425a6211e18bde0800277fa8d9'
p403
aatRp404
tp405
a(S'c383148c5a6211e18bde0800277fa8d9'
p406
g7
((lp407
(lp408
S'c38316585a6211e18bde0800277fa8d9'
p409
aS'c38317fc5a6211e18bde0800277fa8d9'
p410
aatRp411
tp412
a(S'bc14b7e65a9411e1b4b20800277fa8d9'
p413
g7
((lp414
(lp415
S'bc14b96c5a9411e1b4b20800277fa8d9'
p416
aS'bc14bac05a9411e1b4b20800277fa8d9'
p417
aatRp418
tp419
a(S'e5f534b65a6011e1b4d80800277fa8d9'
p420
g7
((lp421
(lp422
S'e5f536825a6011e1b4d80800277fa8d9'
p423
aS'e5f538085a6011e1b4d80800277fa8d9'
p424
aatRp425
tp426
a(S'c38d2e0e5a6211e18bde0800277fa8d9'
p427
g7
((lp428
(lp429
S'c38d2fc65a6211e18bde0800277fa8d9'
p430
aS'c38d31245a6211e18bde0800277fa8d9'
p431
aatRp432
tp433
a(S'c3af7ce85a6211e18bde0800277fa8d9'
p434
g7
((lp435
(lp436
S'c3af7efa5a6211e18bde0800277fa8d9'
p437
aS'c3af80805a6211e18bde0800277fa8d9'
p438
aatRp439
tp440
a(S'c37752fa5a6211e18bde0800277fa8d9'
p441
g7
((lp442
(lp443
S'c37754bc5a6211e18bde0800277fa8d9'
p444
aS'c37756605a6211e18bde0800277fa8d9'
p445
aatRp446
tp447
a(S'bc0b02465a9411e1b4b20800277fa8d9'
p448
g7
((lp449
(lp450
S'bc0b03b85a9411e1b4b20800277fa8d9'
p451
aS'bc0b04ee5a9411e1b4b20800277fa8d9'
p452
aatRp453
tp454
a(S'c358191c5a6211e18bde0800277fa8d9'
p455
g7
((lp456
(lp457
S'c3581af25a6211e18bde0800277fa8d9'
p458
aS'c3581c465a6211e18bde0800277fa8d9'
p459
aatRp460
tp461
a(S'c36754a45a6211e18bde0800277fa8d9'
p462
g7
((lp463
(lp464
S'c367563e5a6211e18bde0800277fa8d9'
p465
aS'c367579c5a6211e18bde0800277fa8d9'
p466
aatRp467
tp468
a(S'c395b9845a6211e18bde0800277fa8d9'
p469
g7
((lp470
(lp471
S'c395bb6e5a6211e18bde0800277fa8d9'
p472
aS'c395bcea5a6211e18bde0800277fa8d9'
p473
aatRp474
tp475
a(S'bc28ada05a9411e1b4b20800277fa8d9'
p476
g7
((lp477
(lp478
S'bc28af3a5a9411e1b4b20800277fa8d9'
p479
aS'bc28b0d45a9411e1b4b20800277fa8d9'
p480
aatRp481
tp482
a(S'e5c7260c5a6011e1b4d80800277fa8d9'
p483
g7
((lp484
(lp485
S'e5c728e65a6011e1b4d80800277fa8d9'
p486
aS'e5c72a6c5a6011e1b4d80800277fa8d9'
p487
aatRp488
tp489
a(S'bc3b3bdc5a9411e1b4b20800277fa8d9'
p490
g7
((lp491
(lp492
S'bc3b3d625a9411e1b4b20800277fa8d9'
p493
aS'bc3b3e5c5a9411e1b4b20800277fa8d9'
p494
aatRp495
tp496
a(S'c36a1ec85a6211e18bde0800277fa8d9'
p497
g7
((lp498
(lp499
S'c36a221a5a6211e18bde0800277fa8d9'
p500
aS'c36a23c85a6211e18bde0800277fa8d9'
p501
aatRp502
tp503
a(S'bc288aa05a9411e1b4b20800277fa8d9'
p504
g7
((lp505
(lp506
S'bc288d5c5a9411e1b4b20800277fa8d9'
p507
aS'bc288ece5a9411e1b4b20800277fa8d9'
p508
aatRp509
tp510
a(S'bc04b2ec5a9411e1b4b20800277fa8d9'
p511
g7
((lp512
(lp513
S'bc04b4685a9411e1b4b20800277fa8d9'
p514
aS'bc04b53a5a9411e1b4b20800277fa8d9'
p515
aatRp516
tp517
a(S'bc2c5a7c5a9411e1b4b20800277fa8d9'
p518
g7
((lp519
(lp520
S'bc2c5c485a9411e1b4b20800277fa8d9'
p521
aS'bc2c5d885a9411e1b4b20800277fa8d9'
p522
aatRp523
tp524
a(S'e5e89efe5a6011e1b4d80800277fa8d9'
p525
g7
((lp526
(lp527
S'e5e8a0b65a6011e1b4d80800277fa8d9'
p528
aS'e5e8a2285a6011e1b4d80800277fa8d9'
p529
aatRp530
tp531
a(S'bc3ad28c5a9411e1b4b20800277fa8d9'
p532
g7
((lp533
(lp534
S'bc3ad4085a9411e1b4b20800277fa8d9'
p535
aS'bc3ad5485a9411e1b4b20800277fa8d9'
p536
aatRp537
tp538
a(S'bc384d6e5a9411e1b4b20800277fa8d9'
p539
g7
((lp540
(lp541
S'bc384eea5a9411e1b4b20800277fa8d9'
p542
aS'bc3850665a9411e1b4b20800277fa8d9'
p543
aatRp544
tp545
a(S'bc21a3985a9411e1b4b20800277fa8d9'
p546
g7
((lp547
(lp548
S'bc21a50a5a9411e1b4b20800277fa8d9'
p549
aS'bc21a6365a9411e1b4b20800277fa8d9'
p550
aatRp551
tp552
a(S'bc4075485a9411e1b4b20800277fa8d9'
p553
g7
((lp554
(lp555
S'bc40771e5a9411e1b4b20800277fa8d9'
p556
aS'bc4078ae5a9411e1b4b20800277fa8d9'
p557
aatRp558
tp559
a(S'c35fa5065a6211e18bde0800277fa8d9'
p560
g7
((lp561
(lp562
S'c35fa7045a6211e18bde0800277fa8d9'
p563
aS'c35fa88a5a6211e18bde0800277fa8d9'
p564
aatRp565
tp566
a(S'c35a58265a6211e18bde0800277fa8d9'
p567
g7
((lp568
(lp569
S'c35a59d45a6211e18bde0800277fa8d9'
p570
aS'c35a5b325a6211e18bde0800277fa8d9'
p571
aatRp572
tp573
a(S'bc0b64de5a9411e1b4b20800277fa8d9'
p574
g7
((lp575
(lp576
S'bc0b66465a9411e1b4b20800277fa8d9'
p577
aS'bc0b677c5a9411e1b4b20800277fa8d9'
p578
aatRp579
tp580
a(S'bc403e485a9411e1b4b20800277fa8d9'
p581
g7
((lp582
(lp583
S'bc403fe25a9411e1b4b20800277fa8d9'
p584
aS'bc40412c5a9411e1b4b20800277fa8d9'
p585
aatRp586
tp587
a(S'e5b982545a6011e1b4d80800277fa8d9'
p588
g7
((lp589
(lp590
S'e5b984165a6011e1b4d80800277fa8d9'
p591
aS'e5b985e25a6011e1b4d80800277fa8d9'
p592
aatRp593
tp594
a(S'c38cf9985a6211e18bde0800277fa8d9'
p595
g7
((lp596
(lp597
S'c38cfca45a6211e18bde0800277fa8d9'
p598
aS'c38cfe3e5a6211e18bde0800277fa8d9'
p599
aatRp600
tp601
a(S'c36178a45a6211e18bde0800277fa8d9'
p602
g7
((lp603
(lp604
S'c3617a705a6211e18bde0800277fa8d9'
p605
aS'c36180065a6211e18bde0800277fa8d9'
p606
aatRp607
tp608
a(S'c37d66a45a6211e18bde0800277fa8d9'
p609
g7
((lp610
(lp611
S'c37d69d85a6211e18bde0800277fa8d9'
p612
aS'c37d6b545a6211e18bde0800277fa8d9'
p613
aatRp614
tp615
a(S'c35c5c2a5a6211e18bde0800277fa8d9'
p616
g7
((lp617
(lp618
S'c35c5e005a6211e18bde0800277fa8d9'
p619
aS'c35c5f725a6211e18bde0800277fa8d9'
p620
aatRp621
tp622
a(S'e619c0565a6011e1b4d80800277fa8d9'
p623
g7
((lp624
(lp625
S'e619c1e65a6011e1b4d80800277fa8d9'
p626
aS'e619c3445a6011e1b4d80800277fa8d9'
p627
aatRp628
tp629
a(S'e5e88dec5a6011e1b4d80800277fa8d9'
p630
g7
((lp631
(lp632
S'e5e88fa45a6011e1b4d80800277fa8d9'
p633
aS'e5e8910c5a6011e1b4d80800277fa8d9'
p634
aatRp635
tp636
a(S'bc132ac05a9411e1b4b20800277fa8d9'
p637
g7
((lp638
(lp639
S'bc132c3c5a9411e1b4b20800277fa8d9'
p640
aS'bc132d865a9411e1b4b20800277fa8d9'
p641
aatRp642
tp643
a(S'bc1cf2765a9411e1b4b20800277fa8d9'
p644
g7
((lp645
(lp646
S'bc1cf3d45a9411e1b4b20800277fa8d9'
p647
aS'bc1cf5645a9411e1b4b20800277fa8d9'
p648
aatRp649
tp650
a(S'e5f6ffbc5a6011e1b4d80800277fa8d9'
p651
g7
((lp652
(lp653
S'e5f701a65a6011e1b4d80800277fa8d9'
p654
aS'e5f7041c5a6011e1b4d80800277fa8d9'
p655
aatRp656
tp657
a(S'bc380e305a9411e1b4b20800277fa8d9'
p658
g7
((lp659
(lp660
S'bc380fca5a9411e1b4b20800277fa8d9'
p661
aS'bc38111e5a9411e1b4b20800277fa8d9'
p662
aatRp663
tp664
a(S'c35834a65a6211e18bde0800277fa8d9'
p665
g7
((lp666
(lp667
S'c35836fe5a6211e18bde0800277fa8d9'
p668
aS'c358385c5a6211e18bde0800277fa8d9'
p669
aatRp670
tp671
a(S'bc01f1ba5a9411e1b4b20800277fa8d9'
p672
g7
((lp673
(lp674
S'bc01f3225a9411e1b4b20800277fa8d9'
p675
aS'bc01f4585a9411e1b4b20800277fa8d9'
p676
aatRp677
tp678
a(S'bbff9ee25a9411e1b4b20800277fa8d9'
p679
g7
((lp680
(lp681
S'bbffa0fe5a9411e1b4b20800277fa8d9'
p682
aS'bbffa2c05a9411e1b4b20800277fa8d9'
p683
aatRp684
tp685
a(S'c3808eb05a6211e18bde0800277fa8d9'
p686
g7
((lp687
(lp688
S'c380904a5a6211e18bde0800277fa8d9'
p689
aS'c38091a85a6211e18bde0800277fa8d9'
p690
aatRp691
tp692
a(S'e61d9e7e5a6011e1b4d80800277fa8d9'
p693
g7
((lp694
(lp695
S'e61da0685a6011e1b4d80800277fa8d9'
p696
aS'e61da1d05a6011e1b4d80800277fa8d9'
p697
aatRp698
tp699
a(S'bc193c265a9411e1b4b20800277fa8d9'
p700
g7
((lp701
(lp702
S'bc193db65a9411e1b4b20800277fa8d9'
p703
aS'bc193f505a9411e1b4b20800277fa8d9'
p704
aatRp705
tp706
a(S'c3b300985a6211e18bde0800277fa8d9'
p707
g7
((lp708
(lp709
S'c3b303685a6211e18bde0800277fa8d9'
p710
aS'c3b305665a6211e18bde0800277fa8d9'
p711
aatRp712
tp713
a(S'e5d2f9b45a6011e1b4d80800277fa8d9'
p714
g7
((lp715
(lp716
S'e5d2fbf85a6011e1b4d80800277fa8d9'
p717
aS'e5d2fd6a5a6011e1b4d80800277fa8d9'
p718
aatRp719
tp720
a(S'e5ebc5c05a6011e1b4d80800277fa8d9'
p721
g7
((lp722
(lp723
S'e5ebc7a05a6011e1b4d80800277fa8d9'
p724
aS'e5ebc9445a6011e1b4d80800277fa8d9'
p725
aatRp726
tp727
a(S'bc16f4d45a9411e1b4b20800277fa8d9'
p728
g7
((lp729
(lp730
S'bc16f6465a9411e1b4b20800277fa8d9'
p731
aS'bc16f7e05a9411e1b4b20800277fa8d9'
p732
aatRp733
tp734
a(S'c3a5d26a5a6211e18bde0800277fa8d9'
p735
g7
((lp736
(lp737
S'c3a5d40e5a6211e18bde0800277fa8d9'
p738
aS'c3a5d5625a6211e18bde0800277fa8d9'
p739
aatRp740
tp741
a(S'e5be1e7c5a6011e1b4d80800277fa8d9'
p742
g7
((lp743
(lp744
S'e5be20345a6011e1b4d80800277fa8d9'
p745
aS'e5be21925a6011e1b4d80800277fa8d9'
p746
aatRp747
tp748
a(S'c3a7af185a6211e18bde0800277fa8d9'
p749
g7
((lp750
(lp751
S'c3a7b0a85a6211e18bde0800277fa8d9'
p752
aS'c3a7b1f25a6211e18bde0800277fa8d9'
p753
aatRp754
tp755
a(S'e61fe1165a6011e1b4d80800277fa8d9'
p756
g7
((lp757
(lp758
S'e61fe2ba5a6011e1b4d80800277fa8d9'
p759
aS'e61fe4405a6011e1b4d80800277fa8d9'
p760
aatRp761
tp762
a(S'bc220efa5a9411e1b4b20800277fa8d9'
p763
g7
((lp764
(lp765
S'bc22106c5a9411e1b4b20800277fa8d9'
p766
aS'bc2211985a9411e1b4b20800277fa8d9'
p767
aatRp768
tp769
a(S'c379c67a5a6211e18bde0800277fa8d9'
p770
g7
((lp771
(lp772
S'c379c8325a6211e18bde0800277fa8d9'
p773
aS'c379c9ae5a6211e18bde0800277fa8d9'
p774
aatRp775
tp776
a(S'c3525acc5a6211e18bde0800277fa8d9'
p777
g7
((lp778
(lp779
S'c3525c705a6211e18bde0800277fa8d9'
p780
aS'c3525dce5a6211e18bde0800277fa8d9'
p781
aatRp782
tp783
a(S'e5c62ce85a6011e1b4d80800277fa8d9'
p784
g7
((lp785
(lp786
S'e5c62ec85a6011e1b4d80800277fa8d9'
p787
aS'e5c630805a6011e1b4d80800277fa8d9'
p788
aatRp789
tp790
a(S'c39036da5a6211e18bde0800277fa8d9'
p791
g7
((lp792
(lp793
S'c39038885a6211e18bde0800277fa8d9'
p794
aS'c39039f05a6211e18bde0800277fa8d9'
p795
aatRp796
tp797
a(S'c3a516225a6211e18bde0800277fa8d9'
p798
g7
((lp799
(lp800
S'c3a517b25a6211e18bde0800277fa8d9'
p801
aS'c3a519065a6211e18bde0800277fa8d9'
p802
aatRp803
tp804
a(S'e61283905a6011e1b4d80800277fa8d9'
p805
g7
((lp806
(lp807
S'e612852a5a6011e1b4d80800277fa8d9'
p808
aS'e61286885a6011e1b4d80800277fa8d9'
p809
aatRp810
tp811
a(S'bc349a665a9411e1b4b20800277fa8d9'
p812
g7
((lp813
(lp814
S'bc349bd85a9411e1b4b20800277fa8d9'
p815
aS'bc349d045a9411e1b4b20800277fa8d9'
p816
aatRp817
tp818
a(S'c36b26ce5a6211e18bde0800277fa8d9'
p819
g7
((lp820
(lp821
S'c36b289a5a6211e18bde0800277fa8d9'
p822
aS'c36b2a205a6211e18bde0800277fa8d9'
p823
aatRp824
tp825
a(S'e5da52e05a6011e1b4d80800277fa8d9'
p826
g7
((lp827
(lp828
S'e5da55e25a6011e1b4d80800277fa8d9'
p829
aS'e5da57685a6011e1b4d80800277fa8d9'
p830
aatRp831
tp832
a(S'e5ef9da85a6011e1b4d80800277fa8d9'
p833
g7
((lp834
(lp835
S'e5efa00a5a6011e1b4d80800277fa8d9'
p836
aS'e5efa15e5a6011e1b4d80800277fa8d9'
p837
aatRp838
tp839
a(S'bc1d228c5a9411e1b4b20800277fa8d9'
p840
g7
((lp841
(lp842
S'bc1d23f45a9411e1b4b20800277fa8d9'
p843
aS'bc1d252a5a9411e1b4b20800277fa8d9'
p844
aatRp845
tp846
a(S'c3ae94865a6211e18bde0800277fa8d9'
p847
g7
((lp848
(lp849
S'c3ae965c5a6211e18bde0800277fa8d9'
p850
aS'c3ae97d85a6211e18bde0800277fa8d9'
p851
aatRp852
tp853
a(S'c39139865a6211e18bde0800277fa8d9'
p854
g7
((lp855
(lp856
S'c3913b525a6211e18bde0800277fa8d9'
p857
aS'c3913ce25a6211e18bde0800277fa8d9'
p858
aatRp859
tp860
a(S'bc2967905a9411e1b4b20800277fa8d9'
p861
g7
((lp862
(lp863
S'bc29697a5a9411e1b4b20800277fa8d9'
p864
aS'bc296ace5a9411e1b4b20800277fa8d9'
p865
aatRp866
tp867
a(S'bc3baea05a9411e1b4b20800277fa8d9'
p868
g7
((lp869
(lp870
S'bc3baea15a9411e1b4b20800277fa8d9'
p871
aS'bc3baea25a9411e1b4b20800277fa8d9'
p872
aatRp873
tp874
a(S'e61f64025a6011e1b4d80800277fa8d9'
p875
g7
((lp876
(lp877
S'e61f65a65a6011e1b4d80800277fa8d9'
p878
aS'e61f66fa5a6011e1b4d80800277fa8d9'
p879
aatRp880
tp881
a(S'bc05022e5a9411e1b4b20800277fa8d9'
p882
g7
((lp883
(lp884
S'bc0503e65a9411e1b4b20800277fa8d9'
p885
aS'bc0505805a9411e1b4b20800277fa8d9'
p886
aatRp887
tp888
a(S'bbff4b685a9411e1b4b20800277fa8d9'
p889
g7
((lp890
(lp891
S'bbff4d165a9411e1b4b20800277fa8d9'
p892
aS'bbff4e6a5a9411e1b4b20800277fa8d9'
p893
aatRp894
tp895
a(S'c38543885a6211e18bde0800277fa8d9'
p896
g7
((lp897
(lp898
S'c38545545a6211e18bde0800277fa8d9'
p899
aS'c38546c65a6211e18bde0800277fa8d9'
p900
aatRp901
tp902
a(S'c3af90d45a6211e18bde0800277fa8d9'
p903
g7
((lp904
(lp905
S'c3af92e65a6211e18bde0800277fa8d9'
p906
aS'c3af94bc5a6211e18bde0800277fa8d9'
p907
aatRp908
tp909
a(S'bc069b985a9411e1b4b20800277fa8d9'
p910
g7
((lp911
(lp912
S'bc069d005a9411e1b4b20800277fa8d9'
p913
aS'bc069e365a9411e1b4b20800277fa8d9'
p914
aatRp915
tp916
a(S'e5f579bc5a6011e1b4d80800277fa8d9'
p917
g7
((lp918
(lp919
S'e5f579bd5a6011e1b4d80800277fa8d9'
p920
aS'e5f579be5a6011e1b4d80800277fa8d9'
p921
aatRp922
tp923
a(S'e60292d25a6011e1b4d80800277fa8d9'
p924
g7
((lp925
(lp926
S'e60294bc5a6011e1b4d80800277fa8d9'
p927
aS'e602962e5a6011e1b4d80800277fa8d9'
p928
aatRp929
tp930
a(S'e60379b85a6011e1b4d80800277fa8d9'
p931
g7
((lp932
(lp933
S'e6037b525a6011e1b4d80800277fa8d9'
p934
aS'e6037ca65a6011e1b4d80800277fa8d9'
p935
aatRp936
tp937
a(S'c379fba45a6211e18bde0800277fa8d9'
p938
g7
((lp939
(lp940
S'c379fd7a5a6211e18bde0800277fa8d9'
p941
aS'c379fef65a6211e18bde0800277fa8d9'
p942
aatRp943
tp944
a(S'c3706d965a6211e18bde0800277fa8d9'
p945
g7
((lp946
(lp947
S'c3706f585a6211e18bde0800277fa8d9'
p948
aS'c37070d45a6211e18bde0800277fa8d9'
p949
aatRp950
tp951
a(S'e61cf5c85a6011e1b4d80800277fa8d9'
p952
g7
((lp953
(lp954
S'e61cf7805a6011e1b4d80800277fa8d9'
p955
aS'e61cf9105a6011e1b4d80800277fa8d9'
p956
aatRp957
tp958
a(S'c3b0493e5a6211e18bde0800277fa8d9'
p959
g7
((lp960
(lp961
S'c3b04bdc5a6211e18bde0800277fa8d9'
p962
aS'c3b04d3a5a6211e18bde0800277fa8d9'
p963
aatRp964
tp965
a(S'c3a45f165a6211e18bde0800277fa8d9'
p966
g7
((lp967
(lp968
S'c3a460a65a6211e18bde0800277fa8d9'
p969
aS'c3a461f05a6211e18bde0800277fa8d9'
p970
aatRp971
tp972
a(S'c3a4d0c25a6211e18bde0800277fa8d9'
p973
g7
((lp974
(lp975
S'c3a4d2845a6211e18bde0800277fa8d9'
p976
aS'c3a4d3e25a6211e18bde0800277fa8d9'
p977
aatRp978
tp979
a(S'c3a0a9665a6211e18bde0800277fa8d9'
p980
g7
((lp981
(lp982
S'c3a0ab005a6211e18bde0800277fa8d9'
p983
aS'c3a0ac545a6211e18bde0800277fa8d9'
p984
aatRp985
tp986
a(S'bc23e4825a9411e1b4b20800277fa8d9'
p987
g7
((lp988
(lp989
S'bc23e78e5a9411e1b4b20800277fa8d9'
p990
aS'bc23e8e25a9411e1b4b20800277fa8d9'
p991
aatRp992
tp993
a(S'e5ff5bee5a6011e1b4d80800277fa8d9'
p994
g7
((lp995
(lp996
S'e5ff5dba5a6011e1b4d80800277fa8d9'
p997
aS'e5ff5f405a6011e1b4d80800277fa8d9'
p998
aatRp999
tp1000
a(S'e5e35bce5a6011e1b4d80800277fa8d9'
p1001
g7
((lp1002
(lp1003
S'e5e35dcc5a6011e1b4d80800277fa8d9'
p1004
aS'e5e35f5c5a6011e1b4d80800277fa8d9'
p1005
aatRp1006
tp1007
a(S'c3680dae5a6211e18bde0800277fa8d9'
p1008
g7
((lp1009
(lp1010
S'c3680f0c5a6211e18bde0800277fa8d9'
p1011
aS'c36810425a6211e18bde0800277fa8d9'
p1012
aatRp1013
tp1014
a(S'bc4179985a9411e1b4b20800277fa8d9'
p1015
g7
((lp1016
(lp1017
S'bc417baa5a9411e1b4b20800277fa8d9'
p1018
aS'bc417d125a9411e1b4b20800277fa8d9'
p1019
aatRp1020
tp1021
a(S'bbf8e6f65a9411e1b4b20800277fa8d9'
p1022
g7
((lp1023
(lp1024
S'bbf8e89a5a9411e1b4b20800277fa8d9'
p1025
aS'bbf8e9ee5a9411e1b4b20800277fa8d9'
p1026
aatRp1027
tp1028
a(S'c39721fc5a6211e18bde0800277fa8d9'
p1029
g7
((lp1030
(lp1031
S'c39723be5a6211e18bde0800277fa8d9'
p1032
aS'c39725445a6211e18bde0800277fa8d9'
p1033
aatRp1034
tp1035
a(S'e5d674725a6011e1b4d80800277fa8d9'
p1036
g7
((lp1037
(lp1038
S'e5d6763e5a6011e1b4d80800277fa8d9'
p1039
aS'e5d677e25a6011e1b4d80800277fa8d9'
p1040
aatRp1041
tp1042
a(S'c36140f05a6211e18bde0800277fa8d9'
p1043
g7
((lp1044
(lp1045
S'c36144ba5a6211e18bde0800277fa8d9'
p1046
aS'c36146545a6211e18bde0800277fa8d9'
p1047
aatRp1048
tp1049
a(S'c36c42f25a6211e18bde0800277fa8d9'
p1050
g7
((lp1051
(lp1052
S'c36c448c5a6211e18bde0800277fa8d9'
p1053
aS'c36c45545a6211e18bde0800277fa8d9'
p1054
aatRp1055
tp1056
a(S'c381e4d65a6211e18bde0800277fa8d9'
p1057
g7
((lp1058
(lp1059
S'c381e6705a6211e18bde0800277fa8d9'
p1060
aS'c381e7c45a6211e18bde0800277fa8d9'
p1061
aatRp1062
tp1063
a(S'bc3031ce5a9411e1b4b20800277fa8d9'
p1064
g7
((lp1065
(lp1066
S'bc3033405a9411e1b4b20800277fa8d9'
p1067
aS'bc3034765a9411e1b4b20800277fa8d9'
p1068
aatRp1069
tp1070
a(S'e5d487de5a6011e1b4d80800277fa8d9'
p1071
g7
((lp1072
(lp1073
S'e5d489965a6011e1b4d80800277fa8d9'
p1074
aS'e5d48af45a6011e1b4d80800277fa8d9'
p1075
aatRp1076
tp1077
a(S'c3569ac45a6211e18bde0800277fa8d9'
p1078
g7
((lp1079
(lp1080
S'c3569d265a6211e18bde0800277fa8d9'
p1081
aS'c3569ec05a6211e18bde0800277fa8d9'
p1082
aatRp1083
tp1084
a(S'e5c4d6905a6011e1b4d80800277fa8d9'
p1085
g7
((lp1086
(lp1087
S'e5c4d9885a6011e1b4d80800277fa8d9'
p1088
aS'e5c4db7c5a6011e1b4d80800277fa8d9'
p1089
aatRp1090
tp1091
a(S'c36228305a6211e18bde0800277fa8d9'
p1092
g7
((lp1093
(lp1094
S'c3622a2e5a6211e18bde0800277fa8d9'
p1095
aS'c3622bb45a6211e18bde0800277fa8d9'
p1096
aatRp1097
tp1098
a(S'bc246c2c5a9411e1b4b20800277fa8d9'
p1099
g7
((lp1100
(lp1101
S'bc246da85a9411e1b4b20800277fa8d9'
p1102
aS'bc246ee85a9411e1b4b20800277fa8d9'
p1103
aatRp1104
tp1105
a(S'bc0a7d445a9411e1b4b20800277fa8d9'
p1106
g7
((lp1107
(lp1108
S'bc0a7eca5a9411e1b4b20800277fa8d9'
p1109
aS'bc0a801e5a9411e1b4b20800277fa8d9'
p1110
aatRp1111
tp1112
a(S'bc3985a85a9411e1b4b20800277fa8d9'
p1113
g7
((lp1114
(lp1115
S'bc3987425a9411e1b4b20800277fa8d9'
p1116
aS'bc3988965a9411e1b4b20800277fa8d9'
p1117
aatRp1118
tp1119
a(S'bc0bda0e5a9411e1b4b20800277fa8d9'
p1120
g7
((lp1121
(lp1122
S'bc0bdb765a9411e1b4b20800277fa8d9'
p1123
aS'bc0bdcac5a9411e1b4b20800277fa8d9'
p1124
aatRp1125
tp1126
a(S'e5c987da5a6011e1b4d80800277fa8d9'
p1127
g7
((lp1128
(lp1129
S'e5c98abe5a6011e1b4d80800277fa8d9'
p1130
aS'e5c98c1c5a6011e1b4d80800277fa8d9'
p1131
aatRp1132
tp1133
a(S'e5ee6f1e5a6011e1b4d80800277fa8d9'
p1134
g7
((lp1135
(lp1136
S'e5ee70905a6011e1b4d80800277fa8d9'
p1137
aS'e5ee71d05a6011e1b4d80800277fa8d9'
p1138
aatRp1139
tp1140
a(S'e5fb69a85a6011e1b4d80800277fa8d9'
p1141
g7
((lp1142
(lp1143
S'e5fb6c285a6011e1b4d80800277fa8d9'
p1144
aS'e5fb6dae5a6011e1b4d80800277fa8d9'
p1145
aatRp1146
tp1147
a(S'bc1c16445a9411e1b4b20800277fa8d9'
p1148
g7
((lp1149
(lp1150
S'bc1c17ca5a9411e1b4b20800277fa8d9'
p1151
aS'bc1c191e5a9411e1b4b20800277fa8d9'
p1152
aatRp1153
tp1154
a(S'e61631525a6011e1b4d80800277fa8d9'
p1155
g7
((lp1156
(lp1157
S'e616331e5a6011e1b4d80800277fa8d9'
p1158
aS'e61634a45a6011e1b4d80800277fa8d9'
p1159
aatRp1160
tp1161
a(S'e623aecc5a6011e1b4d80800277fa8d9'
p1162
g7
((lp1163
(lp1164
S'e623b0485a6011e1b4d80800277fa8d9'
p1165
aS'e623b1885a6011e1b4d80800277fa8d9'
p1166
aatRp1167
tp1168
a(S'e61308f65a6011e1b4d80800277fa8d9'
p1169
g7
((lp1170
(lp1171
S'e6130ac25a6011e1b4d80800277fa8d9'
p1172
aS'e6130c5c5a6011e1b4d80800277fa8d9'
p1173
aatRp1174
tp1175
a(S'e5e0f21c5a6011e1b4d80800277fa8d9'
p1176
g7
((lp1177
(lp1178
S'e5e0f3c05a6011e1b4d80800277fa8d9'
p1179
aS'e5e0f51e5a6011e1b4d80800277fa8d9'
p1180
aatRp1181
tp1182
a(S'c372571e5a6211e18bde0800277fa8d9'
p1183
g7
((lp1184
(lp1185
S'c37258ea5a6211e18bde0800277fa8d9'
p1186
aS'c3725a525a6211e18bde0800277fa8d9'
p1187
aatRp1188
tp1189
a(S'bc09bca65a9411e1b4b20800277fa8d9'
p1190
g7
((lp1191
(lp1192
S'bc09be2c5a9411e1b4b20800277fa8d9'
p1193
aS'bc09bfee5a9411e1b4b20800277fa8d9'
p1194
aatRp1195
tp1196
a(S'c37827165a6211e18bde0800277fa8d9'
p1197
g7
((lp1198
(lp1199
S'c37828f65a6211e18bde0800277fa8d9'
p1200
aS'c3782a545a6211e18bde0800277fa8d9'
p1201
aatRp1202
tp1203
a(S'bbee15505a9411e1b4b20800277fa8d9'
p1204
g7
((lp1205
(lp1206
S'bbee17085a9411e1b4b20800277fa8d9'
p1207
aS'bbee18985a9411e1b4b20800277fa8d9'
p1208
aatRp1209
tp1210
a(S'c37ce3dc5a6211e18bde0800277fa8d9'
p1211
g7
((lp1212
(lp1213
S'c37ce6485a6211e18bde0800277fa8d9'
p1214
aS'c37ce8145a6211e18bde0800277fa8d9'
p1215
aatRp1216
tp1217
a(S'bc0bbe2a5a9411e1b4b20800277fa8d9'
p1218
g7
((lp1219
(lp1220
S'bc0bbf925a9411e1b4b20800277fa8d9'
p1221
aS'bc0bc0be5a9411e1b4b20800277fa8d9'
p1222
aatRp1223
tp1224
a(S'c363b01a5a6211e18bde0800277fa8d9'
p1225
g7
((lp1226
(lp1227
S'c363b3f85a6211e18bde0800277fa8d9'
p1228
aS'c363b56a5a6211e18bde0800277fa8d9'
p1229
aatRp1230
tp1231
a(S'c373329c5a6211e18bde0800277fa8d9'
p1232
g7
((lp1233
(lp1234
S'c37334365a6211e18bde0800277fa8d9'
p1235
aS'c373358a5a6211e18bde0800277fa8d9'
p1236
aatRp1237
tp1238
a(S'e5c747d65a6011e1b4d80800277fa8d9'
p1239
g7
((lp1240
(lp1241
S'e5c74a245a6011e1b4d80800277fa8d9'
p1242
aS'e5c74baa5a6011e1b4d80800277fa8d9'
p1243
aatRp1244
tp1245
a(S'c3b416405a6211e18bde0800277fa8d9'
p1246
g7
((lp1247
(lp1248
S'c3b4180c5a6211e18bde0800277fa8d9'
p1249
aS'c3b419925a6211e18bde0800277fa8d9'
p1250
aatRp1251
tp1252
a(S'e5d1ddae5a6011e1b4d80800277fa8d9'
p1253
g7
((lp1254
(lp1255
S'e5d1df845a6011e1b4d80800277fa8d9'
p1256
aS'e5d1e1325a6011e1b4d80800277fa8d9'
p1257
aatRp1258
tp1259
a(S'c37e80985a6211e18bde0800277fa8d9'
p1260
g7
((lp1261
(lp1262
S'c37e82a05a6211e18bde0800277fa8d9'
p1263
aS'c37e84305a6211e18bde0800277fa8d9'
p1264
aatRp1265
tp1266
a(S'e61b9ee45a6011e1b4d80800277fa8d9'
p1267
g7
((lp1268
(lp1269
S'e61ba0f65a6011e1b4d80800277fa8d9'
p1270
aS'e61ba2725a6011e1b4d80800277fa8d9'
p1271
aatRp1272
tp1273
a(S'c35861105a6211e18bde0800277fa8d9'
p1274
g7
((lp1275
(lp1276
S'c358630e5a6211e18bde0800277fa8d9'
p1277
aS'c35864b25a6211e18bde0800277fa8d9'
p1278
aatRp1279
tp1280
a(S'c3591ccc5a6211e18bde0800277fa8d9'
p1281
g7
((lp1282
(lp1283
S'c3591e5c5a6211e18bde0800277fa8d9'
p1284
aS'c35920285a6211e18bde0800277fa8d9'
p1285
aatRp1286
tp1287
a(S'e5d0cf185a6011e1b4d80800277fa8d9'
p1288
g7
((lp1289
(lp1290
S'e5d0d0b25a6011e1b4d80800277fa8d9'
p1291
aS'e5d0d21a5a6011e1b4d80800277fa8d9'
p1292
aatRp1293
tp1294
a(S'bc22013a5a9411e1b4b20800277fa8d9'
p1295
g7
((lp1296
(lp1297
S'bc2202c05a9411e1b4b20800277fa8d9'
p1298
aS'bc2203f65a9411e1b4b20800277fa8d9'
p1299
aatRp1300
tp1301
a(S'bc1ac6725a9411e1b4b20800277fa8d9'
p1302
g7
((lp1303
(lp1304
S'bc1ac8705a9411e1b4b20800277fa8d9'
p1305
aS'bc1aca145a9411e1b4b20800277fa8d9'
p1306
aatRp1307
tp1308
a(S'c3b51c165a6211e18bde0800277fa8d9'
p1309
g7
((lp1310
(lp1311
S'c3b51ee65a6211e18bde0800277fa8d9'
p1312
aS'c3b5208a5a6211e18bde0800277fa8d9'
p1313
aatRp1314
tp1315
a(S'e62007cc5a6011e1b4d80800277fa8d9'
p1316
g7
((lp1317
(lp1318
S'e62009705a6011e1b4d80800277fa8d9'
p1319
aS'e6200b285a6011e1b4d80800277fa8d9'
p1320
aatRp1321
tp1322
a(S'c366a91e5a6211e18bde0800277fa8d9'
p1323
g7
((lp1324
(lp1325
S'c366aaea5a6211e18bde0800277fa8d9'
p1326
aS'c366ac525a6211e18bde0800277fa8d9'
p1327
aatRp1328
tp1329
a(S'e606f1f65a6011e1b4d80800277fa8d9'
p1330
g7
((lp1331
(lp1332
S'e606f3905a6011e1b4d80800277fa8d9'
p1333
aS'e606f5345a6011e1b4d80800277fa8d9'
p1334
aatRp1335
tp1336
a(S'bc22216a5a9411e1b4b20800277fa8d9'
p1337
g7
((lp1338
(lp1339
S'bc2222c85a9411e1b4b20800277fa8d9'
p1340
aS'bc2224085a9411e1b4b20800277fa8d9'
p1341
aatRp1342
tp1343
a(S'c38223105a6211e18bde0800277fa8d9'
p1344
g7
((lp1345
(lp1346
S'c38224a05a6211e18bde0800277fa8d9'
p1347
aS'c38225ea5a6211e18bde0800277fa8d9'
p1348
aatRp1349
tp1350
a(S'c38102d25a6211e18bde0800277fa8d9'
p1351
g7
((lp1352
(lp1353
S'c381046c5a6211e18bde0800277fa8d9'
p1354
aS'c38105ca5a6211e18bde0800277fa8d9'
p1355
aatRp1356
tp1357
a(S'bbf4ebbe5a9411e1b4b20800277fa8d9'
p1358
g7
((lp1359
(lp1360
S'bbf4ed4e5a9411e1b4b20800277fa8d9'
p1361
aS'bbf4ee8e5a9411e1b4b20800277fa8d9'
p1362
aatRp1363
tp1364
a(S'c397d71e5a6211e18bde0800277fa8d9'
p1365
g7
((lp1366
(lp1367
S'c397d8b85a6211e18bde0800277fa8d9'
p1368
aS'c397da0c5a6211e18bde0800277fa8d9'
p1369
aatRp1370
tp1371
a(S'bbed49685a9411e1b4b20800277fa8d9'
p1372
g7
((lp1373
(lp1374
S'bbed4aee5a9411e1b4b20800277fa8d9'
p1375
aS'bbed4c245a9411e1b4b20800277fa8d9'
p1376
aatRp1377
tp1378
a(S'c39eb49e5a6211e18bde0800277fa8d9'
p1379
g7
((lp1380
(lp1381
S'c39eb6565a6211e18bde0800277fa8d9'
p1382
aS'c39eb7aa5a6211e18bde0800277fa8d9'
p1383
aatRp1384
tp1385
a(S'e5f5230e5a6011e1b4d80800277fa8d9'
p1386
g7
((lp1387
(lp1388
S'e5f524da5a6011e1b4d80800277fa8d9'
p1389
aS'e5f526605a6011e1b4d80800277fa8d9'
p1390
aatRp1391
tp1392
a(S'bc08dad45a9411e1b4b20800277fa8d9'
p1393
g7
((lp1394
(lp1395
S'bc08dd725a9411e1b4b20800277fa8d9'
p1396
aS'bc08debc5a9411e1b4b20800277fa8d9'
p1397
aatRp1398
tp1399
a(S'e5f78b945a6011e1b4d80800277fa8d9'
p1400
g7
((lp1401
(lp1402
S'e5f78d565a6011e1b4d80800277fa8d9'
p1403
aS'e5f78ebe5a6011e1b4d80800277fa8d9'
p1404
aatRp1405
tp1406
a(S'e5d0ee585a6011e1b4d80800277fa8d9'
p1407
g7
((lp1408
(lp1409
S'e5d10bcc5a6011e1b4d80800277fa8d9'
p1410
aS'e5d10d5c5a6011e1b4d80800277fa8d9'
p1411
aatRp1412
tp1413
a(S'bc3831765a9411e1b4b20800277fa8d9'
p1414
g7
((lp1415
(lp1416
S'bc3833385a9411e1b4b20800277fa8d9'
p1417
aS'bc3834c85a9411e1b4b20800277fa8d9'
p1418
aatRp1419
tp1420
a(S'bbed60245a9411e1b4b20800277fa8d9'
p1421
g7
((lp1422
(lp1423
S'bbed63445a9411e1b4b20800277fa8d9'
p1424
aS'bbed648e5a9411e1b4b20800277fa8d9'
p1425
aatRp1426
tp1427
a(S'e55565425a5d11e181aa0800277fa8d9'
p1428
g7
((lp1429
(lp1430
S'e55567865a5d11e181aa0800277fa8d9'
p1431
aS'e55569345a5d11e181aa0800277fa8d9'
p1432
aatRp1433
tp1434
a(S'c3ade1c65a6211e18bde0800277fa8d9'
p1435
g7
((lp1436
(lp1437
S'c3ade3c45a6211e18bde0800277fa8d9'
p1438
aS'c3ade3c55a6211e18bde0800277fa8d9'
p1439
aatRp1440
tp1441
a(S'e5ca86b25a6011e1b4d80800277fa8d9'
p1442
g7
((lp1443
(lp1444
S'e5ca893c5a6011e1b4d80800277fa8d9'
p1445
aS'e5ca8ac25a6011e1b4d80800277fa8d9'
p1446
aatRp1447
tp1448
a(S'e5ed5aa25a6011e1b4d80800277fa8d9'
p1449
g7
((lp1450
(lp1451
S'e5ed5c3c5a6011e1b4d80800277fa8d9'
p1452
aS'e5ed5d905a6011e1b4d80800277fa8d9'
p1453
aatRp1454
tp1455
a(S'bc1bf7fe5a9411e1b4b20800277fa8d9'
p1456
g7
((lp1457
(lp1458
S'bc1bf9c05a9411e1b4b20800277fa8d9'
p1459
aS'bc1bfbfa5a9411e1b4b20800277fa8d9'
p1460
aatRp1461
tp1462
a(S'e60609625a6011e1b4d80800277fa8d9'
p1463
g7
((lp1464
(lp1465
S'e6060b385a6011e1b4d80800277fa8d9'
p1466
aS'e6060cdc5a6011e1b4d80800277fa8d9'
p1467
aatRp1468
tp1469
a(S'c39cc8f05a6211e18bde0800277fa8d9'
p1470
g7
((lp1471
(lp1472
S'c39ccada5a6211e18bde0800277fa8d9'
p1473
aS'c39ccc565a6211e18bde0800277fa8d9'
p1474
aatRp1475
tp1476
a(S'c39c12665a6211e18bde0800277fa8d9'
p1477
g7
((lp1478
(lp1479
S'c39c14285a6211e18bde0800277fa8d9'
p1480
aS'c39c15c25a6211e18bde0800277fa8d9'
p1481
aatRp1482
tp1483
a(S'e60450545a6011e1b4d80800277fa8d9'
p1484
g7
((lp1485
(lp1486
S'e60452205a6011e1b4d80800277fa8d9'
p1487
aS'e60453c45a6011e1b4d80800277fa8d9'
p1488
aatRp1489
tp1490
a(S'e623ec165a6011e1b4d80800277fa8d9'
p1491
g7
((lp1492
(lp1493
S'e623ed7e5a6011e1b4d80800277fa8d9'
p1494
aS'e623eeaa5a6011e1b4d80800277fa8d9'
p1495
aatRp1496
tp1497
a(S'c3719ff45a6211e18bde0800277fa8d9'
p1498
g7
((lp1499
(lp1500
S'c371a1ca5a6211e18bde0800277fa8d9'
p1501
aS'c371a30a5a6211e18bde0800277fa8d9'
p1502
aatRp1503
tp1504
a(S'e5d170805a6011e1b4d80800277fa8d9'
p1505
g7
((lp1506
(lp1507
S'e5d173fa5a6011e1b4d80800277fa8d9'
p1508
aS'e5d176525a6011e1b4d80800277fa8d9'
p1509
aatRp1510
tp1511
a(S'bc1cd4305a9411e1b4b20800277fa8d9'
p1512
g7
((lp1513
(lp1514
S'bc1cd5b65a9411e1b4b20800277fa8d9'
p1515
aS'bc1cd7005a9411e1b4b20800277fa8d9'
p1516
aatRp1517
tp1518
a(S'c36fd7005a6211e18bde0800277fa8d9'
p1519
g7
((lp1520
(lp1521
S'c36fd9bc5a6211e18bde0800277fa8d9'
p1522
aS'c36fdb565a6211e18bde0800277fa8d9'
p1523
aatRp1524
tp1525
a(S'bc4065305a9411e1b4b20800277fa8d9'
p1526
g7
((lp1527
(lp1528
S'bc4066ca5a9411e1b4b20800277fa8d9'
p1529
aS'bc4068145a9411e1b4b20800277fa8d9'
p1530
aatRp1531
tp1532
a(S'e5fb95405a6011e1b4d80800277fa8d9'
p1533
g7
((lp1534
(lp1535
S'e5fba0bc5a6011e1b4d80800277fa8d9'
p1536
aS'e5fba2385a6011e1b4d80800277fa8d9'
p1537
aatRp1538
tp1539
a(S'bc30e1465a9411e1b4b20800277fa8d9'
p1540
g7
((lp1541
(lp1542
S'bc30e31c5a9411e1b4b20800277fa8d9'
p1543
aS'bc30e4705a9411e1b4b20800277fa8d9'
p1544
aatRp1545
tp1546
a(S'c3790ea65a6211e18bde0800277fa8d9'
p1547
g7
((lp1548
(lp1549
S'c37910865a6211e18bde0800277fa8d9'
p1550
aS'c37912025a6211e18bde0800277fa8d9'
p1551
aatRp1552
tp1553
a(S'bc12df205a9411e1b4b20800277fa8d9'
p1554
g7
((lp1555
(lp1556
S'bc12e0a65a9411e1b4b20800277fa8d9'
p1557
aS'bc12e1f05a9411e1b4b20800277fa8d9'
p1558
aatRp1559
tp1560
a(S'bc09a4dc5a9411e1b4b20800277fa8d9'
p1561
g7
((lp1562
(lp1563
S'bc09a6445a9411e1b4b20800277fa8d9'
p1564
aS'bc09a77a5a9411e1b4b20800277fa8d9'
p1565
aatRp1566
tp1567
a(S'c38a5e865a6211e18bde0800277fa8d9'
p1568
g7
((lp1569
(lp1570
S'c38a60345a6211e18bde0800277fa8d9'
p1571
aS'c38a61925a6211e18bde0800277fa8d9'
p1572
aatRp1573
tp1574
a(S'c36d6a425a6211e18bde0800277fa8d9'
p1575
g7
((lp1576
(lp1577
S'c36d6bf05a6211e18bde0800277fa8d9'
p1578
aS'c36d6d4e5a6211e18bde0800277fa8d9'
p1579
aatRp1580
tp1581
a(S'c35b0ab45a6211e18bde0800277fa8d9'
p1582
g7
((lp1583
(lp1584
S'c35b0c945a6211e18bde0800277fa8d9'
p1585
aS'c35b0e105a6211e18bde0800277fa8d9'
p1586
aatRp1587
tp1588
a(S'e6095d925a6011e1b4d80800277fa8d9'
p1589
g7
((lp1590
(lp1591
S'e60962925a6011e1b4d80800277fa8d9'
p1592
aS'e60964685a6011e1b4d80800277fa8d9'
p1593
aatRp1594
tp1595
a(S'e61080d65a6011e1b4d80800277fa8d9'
p1596
g7
((lp1597
(lp1598
S'e61082c05a6011e1b4d80800277fa8d9'
p1599
aS'e61084785a6011e1b4d80800277fa8d9'
p1600
aatRp1601
tp1602
a(S'e60690305a6011e1b4d80800277fa8d9'
p1603
g7
((lp1604
(lp1605
S'e60690da5a6011e1b4d80800277fa8d9'
p1606
aS'e60692885a6011e1b4d80800277fa8d9'
p1607
aatRp1608
tp1609
a(S'bc2ce3165a9411e1b4b20800277fa8d9'
p1610
g7
((lp1611
(lp1612
S'bc2ce49c5a9411e1b4b20800277fa8d9'
p1613
aS'bc2ce5e65a9411e1b4b20800277fa8d9'
p1614
aatRp1615
tp1616
a(S'e5c61b9a5a6011e1b4d80800277fa8d9'
p1617
g7
((lp1618
(lp1619
S'e5c61d525a6011e1b4d80800277fa8d9'
p1620
aS'e5c61eba5a6011e1b4d80800277fa8d9'
p1621
aatRp1622
tp1623
a(S'c351c4725a6211e18bde0800277fa8d9'
p1624
g7
((lp1625
(lp1626
S'c351c7565a6211e18bde0800277fa8d9'
p1627
aS'c351c8d25a6211e18bde0800277fa8d9'
p1628
aatRp1629
tp1630
a(S'e6248c5c5a6011e1b4d80800277fa8d9'
p1631
g7
((lp1632
(lp1633
S'e6248dd85a6011e1b4d80800277fa8d9'
p1634
aS'e6248f185a6011e1b4d80800277fa8d9'
p1635
aatRp1636
tp1637
a(S'c372d18a5a6211e18bde0800277fa8d9'
p1638
g7
((lp1639
(lp1640
S'c372d3245a6211e18bde0800277fa8d9'
p1641
aS'c372d4825a6211e18bde0800277fa8d9'
p1642
aatRp1643
tp1644
a(S'c36841845a6211e18bde0800277fa8d9'
p1645
g7
((lp1646
(lp1647
S'c36843285a6211e18bde0800277fa8d9'
p1648
aS'c368447c5a6211e18bde0800277fa8d9'
p1649
aatRp1650
tp1651
a(S'e61a34505a6011e1b4d80800277fa8d9'
p1652
g7
((lp1653
(lp1654
S'e61a36305a6011e1b4d80800277fa8d9'
p1655
aS'e61a378e5a6011e1b4d80800277fa8d9'
p1656
aatRp1657
tp1658
a(S'e5ba88665a6011e1b4d80800277fa8d9'
p1659
g7
((lp1660
(lp1661
S'e5ba8a965a6011e1b4d80800277fa8d9'
p1662
aS'e5ba8c085a6011e1b4d80800277fa8d9'
p1663
aatRp1664
tp1665
a(S'bc3cfa265a9411e1b4b20800277fa8d9'
p1666
g7
((lp1667
(lp1668
S'bc3cfb8e5a9411e1b4b20800277fa8d9'
p1669
aS'bc3cfcec5a9411e1b4b20800277fa8d9'
p1670
aatRp1671
tp1672
a(S'c3adc34e5a6211e18bde0800277fa8d9'
p1673
g7
((lp1674
(lp1675
S'c3adc5ec5a6211e18bde0800277fa8d9'
p1676
aS'c3adc7b85a6211e18bde0800277fa8d9'
p1677
aatRp1678
tp1679
a(S'e5c1750e5a6011e1b4d80800277fa8d9'
p1680
g7
((lp1681
(lp1682
S'e5c176da5a6011e1b4d80800277fa8d9'
p1683
aS'e5c178745a6011e1b4d80800277fa8d9'
p1684
aatRp1685
tp1686
a(S'c394592c5a6211e18bde0800277fa8d9'
p1687
g7
((lp1688
(lp1689
S'c3945af85a6211e18bde0800277fa8d9'
p1690
aS'c3945c565a6211e18bde0800277fa8d9'
p1691
aatRp1692
tp1693
a(S'bc1e7e485a9411e1b4b20800277fa8d9'
p1694
g7
((lp1695
(lp1696
S'bc1e80145a9411e1b4b20800277fa8d9'
p1697
aS'bc1e81ae5a9411e1b4b20800277fa8d9'
p1698
aatRp1699
tp1700
a(S'e62209285a6011e1b4d80800277fa8d9'
p1701
g7
((lp1702
(lp1703
S'e6220ad65a6011e1b4d80800277fa8d9'
p1704
aS'e6220c2a5a6011e1b4d80800277fa8d9'
p1705
aatRp1706
tp1707
a(S'bc1199085a9411e1b4b20800277fa8d9'
p1708
g7
((lp1709
(lp1710
S'bc119b745a9411e1b4b20800277fa8d9'
p1711
aS'bc119cc85a9411e1b4b20800277fa8d9'
p1712
aatRp1713
tp1714
a(S'c37f32225a6211e18bde0800277fa8d9'
p1715
g7
((lp1716
(lp1717
S'c37f33ee5a6211e18bde0800277fa8d9'
p1718
aS'c37f35745a6211e18bde0800277fa8d9'
p1719
aatRp1720
tp1721
a(S'e5eeaef25a6011e1b4d80800277fa8d9'
p1722
g7
((lp1723
(lp1724
S'e5eeb0825a6011e1b4d80800277fa8d9'
p1725
aS'e5eeb1cc5a6011e1b4d80800277fa8d9'
p1726
aatRp1727
tp1728
a(S'c368751e5a6211e18bde0800277fa8d9'
p1729
g7
((lp1730
(lp1731
S'c36876d65a6211e18bde0800277fa8d9'
p1732
aS'c368782a5a6211e18bde0800277fa8d9'
p1733
aatRp1734
tp1735
a(S'c38a73305a6211e18bde0800277fa8d9'
p1736
g7
((lp1737
(lp1738
S'c38a75065a6211e18bde0800277fa8d9'
p1739
aS'c38a76aa5a6211e18bde0800277fa8d9'
p1740
aatRp1741
tp1742
a(S'bc19fcba5a9411e1b4b20800277fa8d9'
p1743
g7
((lp1744
(lp1745
S'bc19fe405a9411e1b4b20800277fa8d9'
p1746
aS'bc19ff8a5a9411e1b4b20800277fa8d9'
p1747
aatRp1748
tp1749
a(S'bc1097885a9411e1b4b20800277fa8d9'
p1750
g7
((lp1751
(lp1752
S'bc1098f05a9411e1b4b20800277fa8d9'
p1753
aS'bc109a265a9411e1b4b20800277fa8d9'
p1754
aatRp1755
tp1756
a(S'bc03de305a9411e1b4b20800277fa8d9'
p1757
g7
((lp1758
(lp1759
S'bc03df985a9411e1b4b20800277fa8d9'
p1760
aS'bc03e0ce5a9411e1b4b20800277fa8d9'
p1761
aatRp1762
tp1763
a(S'e5c164d85a6011e1b4d80800277fa8d9'
p1764
g7
((lp1765
(lp1766
S'e5c166545a6011e1b4d80800277fa8d9'
p1767
aS'e5c167945a6011e1b4d80800277fa8d9'
p1768
aatRp1769
tp1770
a(S'c3b533545a6211e18bde0800277fa8d9'
p1771
g7
((lp1772
(lp1773
S'c3b53b9c5a6211e18bde0800277fa8d9'
p1774
aS'c3b53dd65a6211e18bde0800277fa8d9'
p1775
aatRp1776
tp1777
a(S'c359f2285a6211e18bde0800277fa8d9'
p1778
g7
((lp1779
(lp1780
S'c359f2505a6211e18bde0800277fa8d9'
p1781
aS'c359f30e5a6211e18bde0800277fa8d9'
p1782
aatRp1783
tp1784
a(S'e5b95a905a6011e1b4d80800277fa8d9'
p1785
g7
((lp1786
(lp1787
S'e5b9603a5a6011e1b4d80800277fa8d9'
p1788
aS'e5b961d45a6011e1b4d80800277fa8d9'
p1789
aatRp1790
tp1791
a(S'e5ddc8ee5a6011e1b4d80800277fa8d9'
p1792
g7
((lp1793
(lp1794
S'e5ddcb3c5a6011e1b4d80800277fa8d9'
p1795
aS'e5ddcd125a6011e1b4d80800277fa8d9'
p1796
aatRp1797
tp1798
a(S'e614cdee5a6011e1b4d80800277fa8d9'
p1799
g7
((lp1800
(lp1801
S'e614cfa65a6011e1b4d80800277fa8d9'
p1802
aS'e614d1365a6011e1b4d80800277fa8d9'
p1803
aatRp1804
tp1805
a(S'c38ac6f05a6211e18bde0800277fa8d9'
p1806
g7
((lp1807
(lp1808
S'c38ac6f15a6211e18bde0800277fa8d9'
p1809
aS'c38ac8305a6211e18bde0800277fa8d9'
p1810
aatRp1811
tp1812
a(S'c3b5623e5a6211e18bde0800277fa8d9'
p1813
g7
((lp1814
(lp1815
S'c3b563ec5a6211e18bde0800277fa8d9'
p1816
aS'c3b565545a6211e18bde0800277fa8d9'
p1817
aatRp1818
tp1819
a(S'c37dbe7e5a6211e18bde0800277fa8d9'
p1820
g7
((lp1821
(lp1822
S'c37dc0225a6211e18bde0800277fa8d9'
p1823
aS'c37dc1765a6211e18bde0800277fa8d9'
p1824
aatRp1825
tp1826
a(S'e60a0db45a6011e1b4d80800277fa8d9'
p1827
g7
((lp1828
(lp1829
S'e60a0f4e5a6011e1b4d80800277fa8d9'
p1830
aS'e60a10985a6011e1b4d80800277fa8d9'
p1831
aatRp1832
tp1833
a(S'e5e4065a5a6011e1b4d80800277fa8d9'
p1834
g7
((lp1835
(lp1836
S'e5e408085a6011e1b4d80800277fa8d9'
p1837
aS'e5e409665a6011e1b4d80800277fa8d9'
p1838
aatRp1839
tp1840
a(S'e5e43a4e5a6011e1b4d80800277fa8d9'
p1841
g7
((lp1842
(lp1843
S'e5e43bfc5a6011e1b4d80800277fa8d9'
p1844
aS'e5e43d5a5a6011e1b4d80800277fa8d9'
p1845
aatRp1846
tp1847
a(S'bc21c4cc5a9411e1b4b20800277fa8d9'
p1848
g7
((lp1849
(lp1850
S'bc21c7ec5a9411e1b4b20800277fa8d9'
p1851
aS'bc21c9405a9411e1b4b20800277fa8d9'
p1852
aatRp1853
tp1854
a(S'e5ce625a5a6011e1b4d80800277fa8d9'
p1855
g7
((lp1856
(lp1857
S'e5ce625b5a6011e1b4d80800277fa8d9'
p1858
aS'e5ce625c5a6011e1b4d80800277fa8d9'
p1859
aatRp1860
tp1861
a(S'e610bca45a6011e1b4d80800277fa8d9'
p1862
g7
((lp1863
(lp1864
S'e610be845a6011e1b4d80800277fa8d9'
p1865
aS'e610c0285a6011e1b4d80800277fa8d9'
p1866
aatRp1867
tp1868
a(S'bc159c745a9411e1b4b20800277fa8d9'
p1869
g7
((lp1870
(lp1871
S'bc159e0e5a9411e1b4b20800277fa8d9'
p1872
aS'bc159f8a5a9411e1b4b20800277fa8d9'
p1873
aatRp1874
tp1875
a(S'c376551c5a6211e18bde0800277fa8d9'
p1876
g7
((lp1877
(lp1878
S'c376571a5a6211e18bde0800277fa8d9'
p1879
aS'c37658c85a6211e18bde0800277fa8d9'
p1880
aatRp1881
tp1882
a(S'bc2867fa5a9411e1b4b20800277fa8d9'
p1883
g7
((lp1884
(lp1885
S'bc2869765a9411e1b4b20800277fa8d9'
p1886
aS'bc286aac5a9411e1b4b20800277fa8d9'
p1887
aatRp1888
tp1889
a(S'c39df7985a6211e18bde0800277fa8d9'
p1890
g7
((lp1891
(lp1892
S'c39df9645a6211e18bde0800277fa8d9'
p1893
aS'c39dfae05a6211e18bde0800277fa8d9'
p1894
aatRp1895
tp1896
a(S'bc0c92505a9411e1b4b20800277fa8d9'
p1897
g7
((lp1898
(lp1899
S'bc0c97325a9411e1b4b20800277fa8d9'
p1900
aS'bc0c98725a9411e1b4b20800277fa8d9'
p1901
aatRp1902
tp1903
a(S'e5d8f47c5a6011e1b4d80800277fa8d9'
p1904
g7
((lp1905
(lp1906
S'e5d8f6485a6011e1b4d80800277fa8d9'
p1907
aS'e5d8f7b05a6011e1b4d80800277fa8d9'
p1908
aatRp1909
tp1910
a(S'c380effe5a6211e18bde0800277fa8d9'
p1911
g7
((lp1912
(lp1913
S'c380f1985a6211e18bde0800277fa8d9'
p1914
aS'c380f2ec5a6211e18bde0800277fa8d9'
p1915
aatRp1916
tp1917
a(S'bbfb4e465a9411e1b4b20800277fa8d9'
p1918
g7
((lp1919
(lp1920
S'bbfb4fcc5a9411e1b4b20800277fa8d9'
p1921
aS'bbfb51165a9411e1b4b20800277fa8d9'
p1922
aatRp1923
tp1924
a(S'e5fc90c65a6011e1b4d80800277fa8d9'
p1925
g7
((lp1926
(lp1927
S'e5fc926a5a6011e1b4d80800277fa8d9'
p1928
aS'e5fc93d25a6011e1b4d80800277fa8d9'
p1929
aatRp1930
tp1931
a(S'e60d13745a6011e1b4d80800277fa8d9'
p1932
g7
((lp1933
(lp1934
S'e60d15365a6011e1b4d80800277fa8d9'
p1935
aS'e60d16bc5a6011e1b4d80800277fa8d9'
p1936
aatRp1937
tp1938
a(S'bc2fb4e25a9411e1b4b20800277fa8d9'
p1939
g7
((lp1940
(lp1941
S'bc2fb6865a9411e1b4b20800277fa8d9'
p1942
aS'bc2fb7f85a9411e1b4b20800277fa8d9'
p1943
aatRp1944
tp1945
a(S'c38e0dd85a6211e18bde0800277fa8d9'
p1946
g7
((lp1947
(lp1948
S'c38e14cc5a6211e18bde0800277fa8d9'
p1949
aS'c38e163e5a6211e18bde0800277fa8d9'
p1950
aatRp1951
tp1952
a(S'bc3c5c6a5a9411e1b4b20800277fa8d9'
p1953
g7
((lp1954
(lp1955
S'bc3c5dd25a9411e1b4b20800277fa8d9'
p1956
aS'bc3c5f085a9411e1b4b20800277fa8d9'
p1957
aatRp1958
tp1959
a(S'bc23996e5a9411e1b4b20800277fa8d9'
p1960
g7
((lp1961
(lp1962
S'bc239b125a9411e1b4b20800277fa8d9'
p1963
aS'bc239d605a9411e1b4b20800277fa8d9'
p1964
aatRp1965
tp1966
a(S'c3abaa505a6211e18bde0800277fa8d9'
p1967
g7
((lp1968
(lp1969
S'c3abaed85a6211e18bde0800277fa8d9'
p1970
aS'c3abb0865a6211e18bde0800277fa8d9'
p1971
aatRp1972
tp1973
a(S'e6213dfe5a6011e1b4d80800277fa8d9'
p1974
g7
((lp1975
(lp1976
S'e6213fa25a6011e1b4d80800277fa8d9'
p1977
aS'e62141005a6011e1b4d80800277fa8d9'
p1978
aatRp1979
tp1980
a(S'c386468e5a6211e18bde0800277fa8d9'
p1981
g7
((lp1982
(lp1983
S'c38648aa5a6211e18bde0800277fa8d9'
p1984
aS'c3864a8a5a6211e18bde0800277fa8d9'
p1985
aatRp1986
tp1987
a(S'e612ca445a6011e1b4d80800277fa8d9'
p1988
g7
((lp1989
(lp1990
S'e612cbd45a6011e1b4d80800277fa8d9'
p1991
aS'e612cd325a6011e1b4d80800277fa8d9'
p1992
aatRp1993
tp1994
a(S'c39539785a6211e18bde0800277fa8d9'
p1995
g7
((lp1996
(lp1997
S'c3953b085a6211e18bde0800277fa8d9'
p1998
aS'c3953c525a6211e18bde0800277fa8d9'
p1999
aatRp2000
tp2001
a(S'e5bd59605a6011e1b4d80800277fa8d9'
p2002
g7
((lp2003
(lp2004
S'e5bd5b045a6011e1b4d80800277fa8d9'
p2005
aS'e5bd5c585a6011e1b4d80800277fa8d9'
p2006
aatRp2007
tp2008
a(S'e5e0e1c85a6011e1b4d80800277fa8d9'
p2009
g7
((lp2010
(lp2011
S'e5e0e3765a6011e1b4d80800277fa8d9'
p2012
aS'e5e0e4de5a6011e1b4d80800277fa8d9'
p2013
aatRp2014
tp2015
a(S'c392e7545a6211e18bde0800277fa8d9'
p2016
g7
((lp2017
(lp2018
S'c392e8ee5a6211e18bde0800277fa8d9'
p2019
aS'c392ea425a6211e18bde0800277fa8d9'
p2020
aatRp2021
tp2022
a(S'c35c4a005a6211e18bde0800277fa8d9'
p2023
g7
((lp2024
(lp2025
S'c35c4bb85a6211e18bde0800277fa8d9'
p2026
aS'c35c4d3e5a6211e18bde0800277fa8d9'
p2027
aatRp2028
tp2029
a(S'e606a4085a6011e1b4d80800277fa8d9'
p2030
g7
((lp2031
(lp2032
S'e606a6b05a6011e1b4d80800277fa8d9'
p2033
aS'e606a8185a6011e1b4d80800277fa8d9'
p2034
aatRp2035
tp2036
a(S'c37f49b05a6211e18bde0800277fa8d9'
p2037
g7
((lp2038
(lp2039
S'c37f4eba5a6211e18bde0800277fa8d9'
p2040
aS'c37f505e5a6211e18bde0800277fa8d9'
p2041
aatRp2042
tp2043
a(S'bc2931c65a9411e1b4b20800277fa8d9'
p2044
g7
((lp2045
(lp2046
S'bc2933565a9411e1b4b20800277fa8d9'
p2047
aS'bc2934a05a9411e1b4b20800277fa8d9'
p2048
aatRp2049
tp2050
a(S'e5f0ae8c5a6011e1b4d80800277fa8d9'
p2051
g7
((lp2052
(lp2053
S'e5f0b0305a6011e1b4d80800277fa8d9'
p2054
aS'e5f0b1845a6011e1b4d80800277fa8d9'
p2055
aatRp2056
tp2057
a(S'bc345df85a9411e1b4b20800277fa8d9'
p2058
g7
((lp2059
(lp2060
S'bc345f7e5a9411e1b4b20800277fa8d9'
p2061
aS'bc3460c85a9411e1b4b20800277fa8d9'
p2062
aatRp2063
tp2064
a(S'e60ba71e5a6011e1b4d80800277fa8d9'
p2065
g7
((lp2066
(lp2067
S'e60ba9085a6011e1b4d80800277fa8d9'
p2068
aS'e60baaa25a6011e1b4d80800277fa8d9'
p2069
aatRp2070
tp2071
a(S'c37996dc5a6211e18bde0800277fa8d9'
p2072
g7
((lp2073
(lp2074
S'c37998b25a6211e18bde0800277fa8d9'
p2075
aS'c3799a2e5a6211e18bde0800277fa8d9'
p2076
aatRp2077
tp2078
a(S'c3aea6925a6211e18bde0800277fa8d9'
p2079
g7
((lp2080
(lp2081
S'c3aea85e5a6211e18bde0800277fa8d9'
p2082
aS'c3aea9e45a6211e18bde0800277fa8d9'
p2083
aatRp2084
tp2085
a(S'bbef588e5a9411e1b4b20800277fa8d9'
p2086
g7
((lp2087
(lp2088
S'bbef5a0a5a9411e1b4b20800277fa8d9'
p2089
aS'bbef5b405a9411e1b4b20800277fa8d9'
p2090
aatRp2091
tp2092
a(S'bc32e69e5a9411e1b4b20800277fa8d9'
p2093
g7
((lp2094
(lp2095
S'bc32e81a5a9411e1b4b20800277fa8d9'
p2096
aS'bc32e9645a9411e1b4b20800277fa8d9'
p2097
aatRp2098
tp2099
a(S'bc2561f45a9411e1b4b20800277fa8d9'
p2100
g7
((lp2101
(lp2102
S'bc2563705a9411e1b4b20800277fa8d9'
p2103
aS'bc2564c45a9411e1b4b20800277fa8d9'
p2104
aatRp2105
tp2106
a(S'e5cd50d65a6011e1b4d80800277fa8d9'
p2107
g7
((lp2108
(lp2109
S'e5cd52985a6011e1b4d80800277fa8d9'
p2110
aS'e5cd540a5a6011e1b4d80800277fa8d9'
p2111
aatRp2112
tp2113
a(S'bc385e305a9411e1b4b20800277fa8d9'
p2114
g7
((lp2115
(lp2116
S'bc385fa25a9411e1b4b20800277fa8d9'
p2117
aS'bc3860d85a9411e1b4b20800277fa8d9'
p2118
aatRp2119
tp2120
a(S'e5d0ae3e5a6011e1b4d80800277fa8d9'
p2121
g7
((lp2122
(lp2123
S'e5d0afd85a6011e1b4d80800277fa8d9'
p2124
aS'e5d0b1405a6011e1b4d80800277fa8d9'
p2125
aatRp2126
tp2127
a(S'e5f2800e5a6011e1b4d80800277fa8d9'
p2128
g7
((lp2129
(lp2130
S'e5f2822a5a6011e1b4d80800277fa8d9'
p2131
aS'e5f283a65a6011e1b4d80800277fa8d9'
p2132
aatRp2133
tp2134
a(S'e5d526da5a6011e1b4d80800277fa8d9'
p2135
g7
((lp2136
(lp2137
S'e5d5289c5a6011e1b4d80800277fa8d9'
p2138
aS'e5d52a2c5a6011e1b4d80800277fa8d9'
p2139
aatRp2140
tp2141
a(S'e619a21a5a6011e1b4d80800277fa8d9'
p2142
g7
((lp2143
(lp2144
S'e619a3b45a6011e1b4d80800277fa8d9'
p2145
aS'e619a5085a6011e1b4d80800277fa8d9'
p2146
aatRp2147
tp2148
a(S'bc415bfc5a9411e1b4b20800277fa8d9'
p2149
g7
((lp2150
(lp2151
S'bc415d825a9411e1b4b20800277fa8d9'
p2152
aS'bc415ecc5a9411e1b4b20800277fa8d9'
p2153
aatRp2154
tp2155
a(S'e5c19fca5a6011e1b4d80800277fa8d9'
p2156
g7
((lp2157
(lp2158
S'e5c1a16e5a6011e1b4d80800277fa8d9'
p2159
aS'e5c1a2c25a6011e1b4d80800277fa8d9'
p2160
aatRp2161
tp2162
a(S'e61919765a6011e1b4d80800277fa8d9'
p2163
g7
((lp2164
(lp2165
S'e6191bba5a6011e1b4d80800277fa8d9'
p2166
aS'e6191d545a6011e1b4d80800277fa8d9'
p2167
aatRp2168
tp2169
a(S'bbeefce05a9411e1b4b20800277fa8d9'
p2170
g7
((lp2171
(lp2172
S'bbeefe665a9411e1b4b20800277fa8d9'
p2173
aS'bbeeffb05a9411e1b4b20800277fa8d9'
p2174
aatRp2175
tp2176
a(S'bc330fc05a9411e1b4b20800277fa8d9'
p2177
g7
((lp2178
(lp2179
S'bc3311465a9411e1b4b20800277fa8d9'
p2180
aS'bc3312905a9411e1b4b20800277fa8d9'
p2181
aatRp2182
tp2183
a(S'bc34c5545a9411e1b4b20800277fa8d9'
p2184
g7
((lp2185
(lp2186
S'bc34c7d45a9411e1b4b20800277fa8d9'
p2187
aS'bc34c9325a9411e1b4b20800277fa8d9'
p2188
aatRp2189
tp2190
a(S'c3a60f1e5a6211e18bde0800277fa8d9'
p2191
g7
((lp2192
(lp2193
S'c3a611085a6211e18bde0800277fa8d9'
p2194
aS'c3a612ac5a6211e18bde0800277fa8d9'
p2195
aatRp2196
tp2197
a(S'bc14eb6c5a9411e1b4b20800277fa8d9'
p2198
g7
((lp2199
(lp2200
S'bc14ecf25a9411e1b4b20800277fa8d9'
p2201
aS'bc14ee3c5a9411e1b4b20800277fa8d9'
p2202
aatRp2203
tp2204
a(S'bc1bd3b45a9411e1b4b20800277fa8d9'
p2205
g7
((lp2206
(lp2207
S'bc1bd54e5a9411e1b4b20800277fa8d9'
p2208
aS'bc1bd6985a9411e1b4b20800277fa8d9'
p2209
aatRp2210
tp2211
a(S'e61d1aa85a6011e1b4d80800277fa8d9'
p2212
g7
((lp2213
(lp2214
S'e61d1c2e5a6011e1b4d80800277fa8d9'
p2215
aS'e61d1d785a6011e1b4d80800277fa8d9'
p2216
aatRp2217
tp2218
a(S'c3b13d625a6211e18bde0800277fa8d9'
p2219
g7
((lp2220
(lp2221
S'c3b13eac5a6211e18bde0800277fa8d9'
p2222
aS'c3b13ead5a6211e18bde0800277fa8d9'
p2223
aatRp2224
tp2225
a(S'bc2875d85a9411e1b4b20800277fa8d9'
p2226
g7
((lp2227
(lp2228
S'bc2877a45a9411e1b4b20800277fa8d9'
p2229
aS'bc2879845a9411e1b4b20800277fa8d9'
p2230
aatRp2231
tp2232
a(S'e5e92f725a6011e1b4d80800277fa8d9'
p2233
g7
((lp2234
(lp2235
S'e5e9312a5a6011e1b4d80800277fa8d9'
p2236
aS'e5e932925a6011e1b4d80800277fa8d9'
p2237
aatRp2238
tp2239
a(S'c358a3a05a6211e18bde0800277fa8d9'
p2240
g7
((lp2241
(lp2242
S'c358a5945a6211e18bde0800277fa8d9'
p2243
aS'c358a72e5a6211e18bde0800277fa8d9'
p2244
aatRp2245
tp2246
a(S'c399d8485a6211e18bde0800277fa8d9'
p2247
g7
((lp2248
(lp2249
S'c399da1e5a6211e18bde0800277fa8d9'
p2250
aS'c399db9a5a6211e18bde0800277fa8d9'
p2251
aatRp2252
tp2253
a(S'bc2f1e425a9411e1b4b20800277fa8d9'
p2254
g7
((lp2255
(lp2256
S'bc2f1fd25a9411e1b4b20800277fa8d9'
p2257
aS'bc2f21265a9411e1b4b20800277fa8d9'
p2258
aatRp2259
tp2260
a(S'c396fc725a6211e18bde0800277fa8d9'
p2261
g7
((lp2262
(lp2263
S'c396fcf45a6211e18bde0800277fa8d9'
p2264
aS'c396feca5a6211e18bde0800277fa8d9'
p2265
aatRp2266
tp2267
a(S'e61b5f605a6011e1b4d80800277fa8d9'
p2268
g7
((lp2269
(lp2270
S'e61b610e5a6011e1b4d80800277fa8d9'
p2271
aS'e61b62765a6011e1b4d80800277fa8d9'
p2272
aatRp2273
tp2274
a(S'bc3230e65a9411e1b4b20800277fa8d9'
p2275
g7
((lp2276
(lp2277
S'bc3232445a9411e1b4b20800277fa8d9'
p2278
aS'bc32337a5a9411e1b4b20800277fa8d9'
p2279
aatRp2280
tp2281
a(S'bbfa336c5a9411e1b4b20800277fa8d9'
p2282
g7
((lp2283
(lp2284
S'bbfa352e5a9411e1b4b20800277fa8d9'
p2285
aS'bbfa35e25a9411e1b4b20800277fa8d9'
p2286
aatRp2287
tp2288
a(S'bc28185e5a9411e1b4b20800277fa8d9'
p2289
g7
((lp2290
(lp2291
S'bc2819c65a9411e1b4b20800277fa8d9'
p2292
aS'bc281afc5a9411e1b4b20800277fa8d9'
p2293
aatRp2294
tp2295
a(S'e603f9ec5a6011e1b4d80800277fa8d9'
p2296
g7
((lp2297
(lp2298
S'e603fb9a5a6011e1b4d80800277fa8d9'
p2299
aS'e603fcf85a6011e1b4d80800277fa8d9'
p2300
aatRp2301
tp2302
a(S'e5efb0865a6011e1b4d80800277fa8d9'
p2303
g7
((lp2304
(lp2305
S'e5efb89c5a6011e1b4d80800277fa8d9'
p2306
aS'e5efba405a6011e1b4d80800277fa8d9'
p2307
aatRp2308
tp2309
a(S'bc2544765a9411e1b4b20800277fa8d9'
p2310
g7
((lp2311
(lp2312
S'bc2545fc5a9411e1b4b20800277fa8d9'
p2313
aS'bc2547505a9411e1b4b20800277fa8d9'
p2314
aatRp2315
tp2316
a(S'e5cb7b265a6011e1b4d80800277fa8d9'
p2317
g7
((lp2318
(lp2319
S'e5cb7cfc5a6011e1b4d80800277fa8d9'
p2320
aS'e5cb7e785a6011e1b4d80800277fa8d9'
p2321
aatRp2322
tp2323
a(S'e61c5fbe5a6011e1b4d80800277fa8d9'
p2324
g7
((lp2325
(lp2326
S'e61c614e5a6011e1b4d80800277fa8d9'
p2327
aS'e61c62985a6011e1b4d80800277fa8d9'
p2328
aatRp2329
tp2330
a(S'c3780c0e5a6211e18bde0800277fa8d9'
p2331
g7
((lp2332
(lp2333
S'c3780de45a6211e18bde0800277fa8d9'
p2334
aS'c3780f885a6211e18bde0800277fa8d9'
p2335
aatRp2336
tp2337
a(S'e5d226ba5a6011e1b4d80800277fa8d9'
p2338
g7
((lp2339
(lp2340
S'e5d2284a5a6011e1b4d80800277fa8d9'
p2341
aS'e5d229da5a6011e1b4d80800277fa8d9'
p2342
aatRp2343
tp2344
a(S'c396322e5a6211e18bde0800277fa8d9'
p2345
g7
((lp2346
(lp2347
S'c39633fa5a6211e18bde0800277fa8d9'
p2348
aS'c39635805a6211e18bde0800277fa8d9'
p2349
aatRp2350
tp2351
a(S'e5ff70f25a6011e1b4d80800277fa8d9'
p2352
g7
((lp2353
(lp2354
S'e5ff72be5a6011e1b4d80800277fa8d9'
p2355
aS'e5ff743a5a6011e1b4d80800277fa8d9'
p2356
aatRp2357
tp2358
a(S'c3a0b5825a6211e18bde0800277fa8d9'
p2359
g7
((lp2360
(lp2361
S'c3a0b5835a6211e18bde0800277fa8d9'
p2362
aS'c3a0b5845a6211e18bde0800277fa8d9'
p2363
aatRp2364
tp2365
a(S'c39250aa5a6211e18bde0800277fa8d9'
p2366
g7
((lp2367
(lp2368
S'c39252625a6211e18bde0800277fa8d9'
p2369
aS'c39253e85a6211e18bde0800277fa8d9'
p2370
aatRp2371
tp2372
a(S'c36b13785a6211e18bde0800277fa8d9'
p2373
g7
((lp2374
(lp2375
S'c36b158a5a6211e18bde0800277fa8d9'
p2376
aS'c36b18145a6211e18bde0800277fa8d9'
p2377
aatRp2378
tp2379
a(S'bc40edac5a9411e1b4b20800277fa8d9'
p2380
g7
((lp2381
(lp2382
S'bc40fc845a9411e1b4b20800277fa8d9'
p2383
aS'bc40fdec5a9411e1b4b20800277fa8d9'
p2384
aatRp2385
tp2386
a(S'bc01ac3c5a9411e1b4b20800277fa8d9'
p2387
g7
((lp2388
(lp2389
S'bc01adb85a9411e1b4b20800277fa8d9'
p2390
aS'bc01aeee5a9411e1b4b20800277fa8d9'
p2391
aatRp2392
tp2393
a(S'e5c6423c5a6011e1b4d80800277fa8d9'
p2394
g7
((lp2395
(lp2396
S'e5c643ea5a6011e1b4d80800277fa8d9'
p2397
aS'e5c645525a6011e1b4d80800277fa8d9'
p2398
aatRp2399
tp2400
a(S'bc06e17a5a9411e1b4b20800277fa8d9'
p2401
g7
((lp2402
(lp2403
S'bc06e2e25a9411e1b4b20800277fa8d9'
p2404
aS'bc06e4185a9411e1b4b20800277fa8d9'
p2405
aatRp2406
tp2407
a(S'e5de606a5a6011e1b4d80800277fa8d9'
p2408
g7
((lp2409
(lp2410
S'e5de622c5a6011e1b4d80800277fa8d9'
p2411
aS'e5de639e5a6011e1b4d80800277fa8d9'
p2412
aatRp2413
tp2414
a(S'bbecd3ca5a9411e1b4b20800277fa8d9'
p2415
g7
((lp2416
(lp2417
S'bbecd6545a9411e1b4b20800277fa8d9'
p2418
aS'bbecd7b25a9411e1b4b20800277fa8d9'
p2419
aatRp2420
tp2421
a(S'e5ed4bac5a6011e1b4d80800277fa8d9'
p2422
g7
((lp2423
(lp2424
S'e5ed4d465a6011e1b4d80800277fa8d9'
p2425
aS'e5ed4ea45a6011e1b4d80800277fa8d9'
p2426
aatRp2427
tp2428
a(S'e5f4bf545a6011e1b4d80800277fa8d9'
p2429
g7
((lp2430
(lp2431
S'e5f4c12a5a6011e1b4d80800277fa8d9'
p2432
aS'e5f4c2a65a6011e1b4d80800277fa8d9'
p2433
aatRp2434
tp2435
a(S'e5edc58c5a6011e1b4d80800277fa8d9'
p2436
g7
((lp2437
(lp2438
S'e5edc71c5a6011e1b4d80800277fa8d9'
p2439
aS'e5edc8c05a6011e1b4d80800277fa8d9'
p2440
aatRp2441
tp2442
a(S'c38d434e5a6211e18bde0800277fa8d9'
p2443
g7
((lp2444
(lp2445
S'c38d46325a6211e18bde0800277fa8d9'
p2446
aS'c38d47cc5a6211e18bde0800277fa8d9'
p2447
aatRp2448
tp2449
a(S'e5e672b45a6011e1b4d80800277fa8d9'
p2450
g7
((lp2451
(lp2452
S'e5e675165a6011e1b4d80800277fa8d9'
p2453
aS'e5e676565a6011e1b4d80800277fa8d9'
p2454
aatRp2455
tp2456
a(S'c396bbfe5a6211e18bde0800277fa8d9'
p2457
g7
((lp2458
(lp2459
S'c396be105a6211e18bde0800277fa8d9'
p2460
aS'c396bfe65a6211e18bde0800277fa8d9'
p2461
aatRp2462
tp2463
a(S'c3990f125a6211e18bde0800277fa8d9'
p2464
g7
((lp2465
(lp2466
S'c39911c45a6211e18bde0800277fa8d9'
p2467
aS'c399132c5a6211e18bde0800277fa8d9'
p2468
aatRp2469
tp2470
a(S'e5cf8afe5a6011e1b4d80800277fa8d9'
p2471
g7
((lp2472
(lp2473
S'e5cf8ca25a6011e1b4d80800277fa8d9'
p2474
aS'e5cf8e505a6011e1b4d80800277fa8d9'
p2475
aatRp2476
tp2477
a(S'e5ebecda5a6011e1b4d80800277fa8d9'
p2478
g7
((lp2479
(lp2480
S'e5ebee565a6011e1b4d80800277fa8d9'
p2481
aS'e5ebef965a6011e1b4d80800277fa8d9'
p2482
aatRp2483
tp2484
a(S'bbf640d65a9411e1b4b20800277fa8d9'
p2485
g7
((lp2486
(lp2487
S'bbf642985a9411e1b4b20800277fa8d9'
p2488
aS'bbf644325a9411e1b4b20800277fa8d9'
p2489
aatRp2490
tp2491
a(S'e60494ba5a6011e1b4d80800277fa8d9'
p2492
g7
((lp2493
(lp2494
S'e60498f25a6011e1b4d80800277fa8d9'
p2495
aS'e6049aa05a6011e1b4d80800277fa8d9'
p2496
aatRp2497
tp2498
a(S'bc1961a65a9411e1b4b20800277fa8d9'
p2499
g7
((lp2500
(lp2501
S'bc19630e5a9411e1b4b20800277fa8d9'
p2502
aS'bc1964da5a9411e1b4b20800277fa8d9'
p2503
aatRp2504
tp2505
a(S'bc13f2485a9411e1b4b20800277fa8d9'
p2506
g7
((lp2507
(lp2508
S'bc13f3ce5a9411e1b4b20800277fa8d9'
p2509
aS'bc13f5185a9411e1b4b20800277fa8d9'
p2510
aatRp2511
tp2512
a(S'bbed91205a9411e1b4b20800277fa8d9'
p2513
g7
((lp2514
(lp2515
S'bbed929c5a9411e1b4b20800277fa8d9'
p2516
aS'bbed93d25a9411e1b4b20800277fa8d9'
p2517
aatRp2518
tp2519
a(S'c396cf7c5a6211e18bde0800277fa8d9'
p2520
g7
((lp2521
(lp2522
S'c396d1485a6211e18bde0800277fa8d9'
p2523
aS'c396d2c45a6211e18bde0800277fa8d9'
p2524
aatRp2525
tp2526
a(S'bc0c12585a9411e1b4b20800277fa8d9'
p2527
g7
((lp2528
(lp2529
S'bc0c13d45a9411e1b4b20800277fa8d9'
p2530
aS'bc0c150a5a9411e1b4b20800277fa8d9'
p2531
aatRp2532
tp2533
a(S'c36166f25a6211e18bde0800277fa8d9'
p2534
g7
((lp2535
(lp2536
S'c36168fa5a6211e18bde0800277fa8d9'
p2537
aS'c3616a945a6211e18bde0800277fa8d9'
p2538
aatRp2539
tp2540
a(S'c38509185a6211e18bde0800277fa8d9'
p2541
g7
((lp2542
(lp2543
S'c3850b025a6211e18bde0800277fa8d9'
p2544
aS'c3850c565a6211e18bde0800277fa8d9'
p2545
aatRp2546
tp2547
a(S'c384acde5a6211e18bde0800277fa8d9'
p2548
g7
((lp2549
(lp2550
S'c384ae825a6211e18bde0800277fa8d9'
p2551
aS'c384afd65a6211e18bde0800277fa8d9'
p2552
aatRp2553
tp2554
a(S'c39e6e4e5a6211e18bde0800277fa8d9'
p2555
g7
((lp2556
(lp2557
S'c39e70105a6211e18bde0800277fa8d9'
p2558
aS'c39e71785a6211e18bde0800277fa8d9'
p2559
aatRp2560
tp2561
a(S'bc29b77c5a9411e1b4b20800277fa8d9'
p2562
g7
((lp2563
(lp2564
S'bc29b95c5a9411e1b4b20800277fa8d9'
p2565
aS'bc29baec5a9411e1b4b20800277fa8d9'
p2566
aatRp2567
tp2568
a(S'e6122df05a6011e1b4d80800277fa8d9'
p2569
g7
((lp2570
(lp2571
S'e6122fa85a6011e1b4d80800277fa8d9'
p2572
aS'e61231385a6011e1b4d80800277fa8d9'
p2573
aatRp2574
tp2575
a(S'e5eee23c5a6011e1b4d80800277fa8d9'
p2576
g7
((lp2577
(lp2578
S'e5eee3fe5a6011e1b4d80800277fa8d9'
p2579
aS'e5eee58e5a6011e1b4d80800277fa8d9'
p2580
aatRp2581
tp2582
a(S'c39d6b525a6211e18bde0800277fa8d9'
p2583
g7
((lp2584
(lp2585
S'c39d6dd25a6211e18bde0800277fa8d9'
p2586
aS'c39d6f585a6211e18bde0800277fa8d9'
p2587
aatRp2588
tp2589
a(S'e5f711be5a6011e1b4d80800277fa8d9'
p2590
g7
((lp2591
(lp2592
S'e5f7136c5a6011e1b4d80800277fa8d9'
p2593
aS'e5f714d45a6011e1b4d80800277fa8d9'
p2594
aatRp2595
tp2596
a(S'c395cafa5a6211e18bde0800277fa8d9'
p2597
g7
((lp2598
(lp2599
S'c395cf8c5a6211e18bde0800277fa8d9'
p2600
aS'c395d2525a6211e18bde0800277fa8d9'
p2601
aatRp2602
tp2603
a(S'bc03d0705a9411e1b4b20800277fa8d9'
p2604
g7
((lp2605
(lp2606
S'bc03d1f65a9411e1b4b20800277fa8d9'
p2607
aS'bc03d32c5a9411e1b4b20800277fa8d9'
p2608
aatRp2609
tp2610
a(S'c37eb8605a6211e18bde0800277fa8d9'
p2611
g7
((lp2612
(lp2613
S'c37eba225a6211e18bde0800277fa8d9'
p2614
aS'c37ebb9e5a6211e18bde0800277fa8d9'
p2615
aatRp2616
tp2617
a(S'e5ff28365a6011e1b4d80800277fa8d9'
p2618
g7
((lp2619
(lp2620
S'e5ff33445a6011e1b4d80800277fa8d9'
p2621
aS'e5ff34de5a6011e1b4d80800277fa8d9'
p2622
aatRp2623
tp2624
a(S'c3976d885a6211e18bde0800277fa8d9'
p2625
g7
((lp2626
(lp2627
S'c3976f405a6211e18bde0800277fa8d9'
p2628
aS'c39770b25a6211e18bde0800277fa8d9'
p2629
aatRp2630
tp2631
a(S'c379a7c65a6211e18bde0800277fa8d9'
p2632
g7
((lp2633
(lp2634
S'c379a9605a6211e18bde0800277fa8d9'
p2635
aS'c379a9615a6211e18bde0800277fa8d9'
p2636
aatRp2637
tp2638
a(S'bc23c8da5a9411e1b4b20800277fa8d9'
p2639
g7
((lp2640
(lp2641
S'bc23ca565a9411e1b4b20800277fa8d9'
p2642
aS'bc23cb8c5a9411e1b4b20800277fa8d9'
p2643
aatRp2644
tp2645
a(S'e5d82b005a6011e1b4d80800277fa8d9'
p2646
g7
((lp2647
(lp2648
S'e5d82cf45a6011e1b4d80800277fa8d9'
p2649
aS'e5d82f6a5a6011e1b4d80800277fa8d9'
p2650
aatRp2651
tp2652
a(S'bc2176e85a9411e1b4b20800277fa8d9'
p2653
g7
((lp2654
(lp2655
S'bc2178785a9411e1b4b20800277fa8d9'
p2656
aS'bc217ad05a9411e1b4b20800277fa8d9'
p2657
aatRp2658
tp2659
a(S'c396a5f65a6211e18bde0800277fa8d9'
p2660
g7
((lp2661
(lp2662
S'c396a7cc5a6211e18bde0800277fa8d9'
p2663
aS'c396a9525a6211e18bde0800277fa8d9'
p2664
aatRp2665
tp2666
a(S'e5ce51a25a6011e1b4d80800277fa8d9'
p2667
g7
((lp2668
(lp2669
S'e5ce53f05a6011e1b4d80800277fa8d9'
p2670
aS'e5ce556c5a6011e1b4d80800277fa8d9'
p2671
aatRp2672
tp2673
a(S'e5be53605a6011e1b4d80800277fa8d9'
p2674
g7
((lp2675
(lp2676
S'e5be554a5a6011e1b4d80800277fa8d9'
p2677
aS'e5be56a85a6011e1b4d80800277fa8d9'
p2678
aatRp2679
tp2680
a(S'c3b0fc305a6211e18bde0800277fa8d9'
p2681
g7
((lp2682
(lp2683
S'c3b0fdde5a6211e18bde0800277fa8d9'
p2684
aS'c3b0ff325a6211e18bde0800277fa8d9'
p2685
aatRp2686
tp2687
a(S'bc04e9b05a9411e1b4b20800277fa8d9'
p2688
g7
((lp2689
(lp2690
S'bc04eb4a5a9411e1b4b20800277fa8d9'
p2691
aS'bc04eb685a9411e1b4b20800277fa8d9'
p2692
aatRp2693
tp2694
a(S'c38952845a6211e18bde0800277fa8d9'
p2695
g7
((lp2696
(lp2697
S'c38955a45a6211e18bde0800277fa8d9'
p2698
aS'c389572a5a6211e18bde0800277fa8d9'
p2699
aatRp2700
tp2701
a(S'c391e6d85a6211e18bde0800277fa8d9'
p2702
g7
((lp2703
(lp2704
S'c391e89a5a6211e18bde0800277fa8d9'
p2705
aS'c391ea3e5a6211e18bde0800277fa8d9'
p2706
aatRp2707
tp2708
a(S'e624bd3a5a6011e1b4d80800277fa8d9'
p2709
g7
((lp2710
(lp2711
S'e624bec05a6011e1b4d80800277fa8d9'
p2712
aS'e624c00a5a6011e1b4d80800277fa8d9'
p2713
aatRp2714
tp2715
a(S'e5d147045a6011e1b4d80800277fa8d9'
p2716
g7
((lp2717
(lp2718
S'e5d148b25a6011e1b4d80800277fa8d9'
p2719
aS'e5d14a1a5a6011e1b4d80800277fa8d9'
p2720
aatRp2721
tp2722
a(S'bc1c46325a9411e1b4b20800277fa8d9'
p2723
g7
((lp2724
(lp2725
S'bc1c6e5a5a9411e1b4b20800277fa8d9'
p2726
aS'bc1c70125a9411e1b4b20800277fa8d9'
p2727
aatRp2728
tp2729
a(S'bbece3c45a9411e1b4b20800277fa8d9'
p2730
g7
((lp2731
(lp2732
S'bbece54a5a9411e1b4b20800277fa8d9'
p2733
aS'bbece69e5a9411e1b4b20800277fa8d9'
p2734
aatRp2735
tp2736
a(S'bc37fc6a5a9411e1b4b20800277fa8d9'
p2737
g7
((lp2738
(lp2739
S'bc37ff265a9411e1b4b20800277fa8d9'
p2740
aS'bc3801065a9411e1b4b20800277fa8d9'
p2741
aatRp2742
tp2743
a(S'bc2a9d405a9411e1b4b20800277fa8d9'
p2744
g7
((lp2745
(lp2746
S'bc2a9f525a9411e1b4b20800277fa8d9'
p2747
aS'bc2aa0c45a9411e1b4b20800277fa8d9'
p2748
aatRp2749
tp2750
a(S'bc25f5885a9411e1b4b20800277fa8d9'
p2751
g7
((lp2752
(lp2753
S'bc25f72c5a9411e1b4b20800277fa8d9'
p2754
aS'bc25f8805a9411e1b4b20800277fa8d9'
p2755
aatRp2756
tp2757
a(S'e5ebff725a6011e1b4d80800277fa8d9'
p2758
g7
((lp2759
(lp2760
S'e5ec01705a6011e1b4d80800277fa8d9'
p2761
aS'e5ec02d85a6011e1b4d80800277fa8d9'
p2762
aatRp2763
tp2764
a(S'bc139d5c5a9411e1b4b20800277fa8d9'
p2765
g7
((lp2766
(lp2767
S'bc139ee25a9411e1b4b20800277fa8d9'
p2768
aS'bc13a02c5a9411e1b4b20800277fa8d9'
p2769
aatRp2770
tp2771
a(S'e5ecaa445a6011e1b4d80800277fa8d9'
p2772
g7
((lp2773
(lp2774
S'e5ecabe85a6011e1b4d80800277fa8d9'
p2775
aS'e5ecad3c5a6011e1b4d80800277fa8d9'
p2776
aatRp2777
tp2778
a(S'c37d12265a6211e18bde0800277fa8d9'
p2779
g7
((lp2780
(lp2781
S'c37d13d45a6211e18bde0800277fa8d9'
p2782
aS'c37d15285a6211e18bde0800277fa8d9'
p2783
aatRp2784
tp2785
a(S'e62345ea5a6011e1b4d80800277fa8d9'
p2786
g7
((lp2787
(lp2788
S'e62347845a6011e1b4d80800277fa8d9'
p2789
aS'e62348e25a6011e1b4d80800277fa8d9'
p2790
aatRp2791
tp2792
a(S'bc2ab1c25a9411e1b4b20800277fa8d9'
p2793
g7
((lp2794
(lp2795
S'bc2ab3c05a9411e1b4b20800277fa8d9'
p2796
aS'bc2ab53c5a9411e1b4b20800277fa8d9'
p2797
aatRp2798
tp2799
a(S'e5bb0b4c5a6011e1b4d80800277fa8d9'
p2800
g7
((lp2801
(lp2802
S'e5bb0d2c5a6011e1b4d80800277fa8d9'
p2803
aS'e5bb0e9e5a6011e1b4d80800277fa8d9'
p2804
aatRp2805
tp2806
a(S'c38ecb1a5a6211e18bde0800277fa8d9'
p2807
g7
((lp2808
(lp2809
S'c38ecdae5a6211e18bde0800277fa8d9'
p2810
aS'c38ecf0c5a6211e18bde0800277fa8d9'
p2811
aatRp2812
tp2813
a(S'e5d4b8305a6011e1b4d80800277fa8d9'
p2814
g7
((lp2815
(lp2816
S'e5d4b9ca5a6011e1b4d80800277fa8d9'
p2817
aS'e5d4bb825a6011e1b4d80800277fa8d9'
p2818
aatRp2819
tp2820
a(S'e5fe79ae5a6011e1b4d80800277fa8d9'
p2821
g7
((lp2822
(lp2823
S'e5fe7bc05a6011e1b4d80800277fa8d9'
p2824
aS'e5fe7da05a6011e1b4d80800277fa8d9'
p2825
aatRp2826
tp2827
a(S'c3647f0e5a6211e18bde0800277fa8d9'
p2828
g7
((lp2829
(lp2830
S'c364813e5a6211e18bde0800277fa8d9'
p2831
aS'c36482e25a6211e18bde0800277fa8d9'
p2832
aatRp2833
tp2834
a(S'c3678fc85a6211e18bde0800277fa8d9'
p2835
g7
((lp2836
(lp2837
S'c367914e5a6211e18bde0800277fa8d9'
p2838
aS'c36792985a6211e18bde0800277fa8d9'
p2839
aatRp2840
tp2841
a(S'e5d24e1a5a6011e1b4d80800277fa8d9'
p2842
g7
((lp2843
(lp2844
S'e5d24f965a6011e1b4d80800277fa8d9'
p2845
aS'e5d251265a6011e1b4d80800277fa8d9'
p2846
aatRp2847
tp2848
a(S'c36337665a6211e18bde0800277fa8d9'
p2849
g7
((lp2850
(lp2851
S'c36338e25a6211e18bde0800277fa8d9'
p2852
aS'c3633a2c5a6211e18bde0800277fa8d9'
p2853
aatRp2854
tp2855
a(S'e5d4774e5a6011e1b4d80800277fa8d9'
p2856
g7
((lp2857
(lp2858
S'e5d479065a6011e1b4d80800277fa8d9'
p2859
aS'e5d47a645a6011e1b4d80800277fa8d9'
p2860
aatRp2861
tp2862
a(S'e60970525a6011e1b4d80800277fa8d9'
p2863
g7
((lp2864
(lp2865
S'e60971d85a6011e1b4d80800277fa8d9'
p2866
aS'e60973225a6011e1b4d80800277fa8d9'
p2867
aatRp2868
tp2869
a(S'c3984ab45a6211e18bde0800277fa8d9'
p2870
g7
((lp2871
(lp2872
S'c3984c4e5a6211e18bde0800277fa8d9'
p2873
aS'c3984dac5a6211e18bde0800277fa8d9'
p2874
aatRp2875
tp2876
a(S'c39d4d985a6211e18bde0800277fa8d9'
p2877
g7
((lp2878
(lp2879
S'c39d4ffa5a6211e18bde0800277fa8d9'
p2880
aS'c39d51765a6211e18bde0800277fa8d9'
p2881
aatRp2882
tp2883
a(S'bc0e64225a9411e1b4b20800277fa8d9'
p2884
g7
((lp2885
(lp2886
S'bc0e66485a9411e1b4b20800277fa8d9'
p2887
aS'bc0e67925a9411e1b4b20800277fa8d9'
p2888
aatRp2889
tp2890
a(S'c3acc2005a6211e18bde0800277fa8d9'
p2891
g7
((lp2892
(lp2893
S'c3acc4265a6211e18bde0800277fa8d9'
p2894
aS'c3acc5b65a6211e18bde0800277fa8d9'
p2895
aatRp2896
tp2897
a(S'c3ab50dc5a6211e18bde0800277fa8d9'
p2898
g7
((lp2899
(lp2900
S'c3ab53fc5a6211e18bde0800277fa8d9'
p2901
aS'c3ab56045a6211e18bde0800277fa8d9'
p2902
aatRp2903
tp2904
a(S'bc0ae6305a9411e1b4b20800277fa8d9'
p2905
g7
((lp2906
(lp2907
S'bc0ae7ac5a9411e1b4b20800277fa8d9'
p2908
aS'bc0ae8e25a9411e1b4b20800277fa8d9'
p2909
aatRp2910
tp2911
a(S'bc2d27365a9411e1b4b20800277fa8d9'
p2912
g7
((lp2913
(lp2914
S'bc2d290c5a9411e1b4b20800277fa8d9'
p2915
aS'bc2d2aa65a9411e1b4b20800277fa8d9'
p2916
aatRp2917
tp2918
a(S'c38019b25a6211e18bde0800277fa8d9'
p2919
g7
((lp2920
(lp2921
S'c3801b565a6211e18bde0800277fa8d9'
p2922
aS'c3801c965a6211e18bde0800277fa8d9'
p2923
aatRp2924
tp2925
a(S'c354e2245a6211e18bde0800277fa8d9'
p2926
g7
((lp2927
(lp2928
S'c354e45e5a6211e18bde0800277fa8d9'
p2929
aS'c354e65c5a6211e18bde0800277fa8d9'
p2930
aatRp2931
tp2932
a(S'e5c099c25a6011e1b4d80800277fa8d9'
p2933
g7
((lp2934
(lp2935
S'e5c09b5c5a6011e1b4d80800277fa8d9'
p2936
aS'e5c09d645a6011e1b4d80800277fa8d9'
p2937
aatRp2938
tp2939
a(S'c39fbd125a6211e18bde0800277fa8d9'
p2940
g7
((lp2941
(lp2942
S'c39fbf245a6211e18bde0800277fa8d9'
p2943
aS'c39fc0825a6211e18bde0800277fa8d9'
p2944
aatRp2945
tp2946
a(S'c38efd385a6211e18bde0800277fa8d9'
p2947
g7
((lp2948
(lp2949
S'c38eff4a5a6211e18bde0800277fa8d9'
p2950
aS'c38f00b25a6211e18bde0800277fa8d9'
p2951
aatRp2952
tp2953
a(S'bbfc5da45a9411e1b4b20800277fa8d9'
p2954
g7
((lp2955
(lp2956
S'bbfc5f345a9411e1b4b20800277fa8d9'
p2957
aS'bbfc60a65a9411e1b4b20800277fa8d9'
p2958
aatRp2959
tp2960
a(S'e6062e065a6011e1b4d80800277fa8d9'
p2961
g7
((lp2962
(lp2963
S'e6062fa05a6011e1b4d80800277fa8d9'
p2964
aS'e606311c5a6011e1b4d80800277fa8d9'
p2965
aatRp2966
tp2967
a(S'e5bbb9845a6011e1b4d80800277fa8d9'
p2968
g7
((lp2969
(lp2970
S'e5bbbb1e5a6011e1b4d80800277fa8d9'
p2971
aS'e5bbbc725a6011e1b4d80800277fa8d9'
p2972
aatRp2973
tp2974
a(S'c3a7bee05a6211e18bde0800277fa8d9'
p2975
g7
((lp2976
(lp2977
S'c3a7c0705a6211e18bde0800277fa8d9'
p2978
aS'c3a7c1ce5a6211e18bde0800277fa8d9'
p2979
aatRp2980
tp2981
a(S'bc18b54e5a9411e1b4b20800277fa8d9'
p2982
g7
((lp2983
(lp2984
S'bc18b7565a9411e1b4b20800277fa8d9'
p2985
aS'bc18b9405a9411e1b4b20800277fa8d9'
p2986
aatRp2987
tp2988
a(S'bc2fee4e5a9411e1b4b20800277fa8d9'
p2989
g7
((lp2990
(lp2991
S'bc2fefc05a9411e1b4b20800277fa8d9'
p2992
aS'bc2ff0f65a9411e1b4b20800277fa8d9'
p2993
aatRp2994
tp2995
a(S'e5e701b65a6011e1b4d80800277fa8d9'
p2996
g7
((lp2997
(lp2998
S'e5e7036e5a6011e1b4d80800277fa8d9'
p2999
aS'e5e704c25a6011e1b4d80800277fa8d9'
p3000
aatRp3001
tp3002
a(S'e6144b765a6011e1b4d80800277fa8d9'
p3003
g7
((lp3004
(lp3005
S'e6144cf25a6011e1b4d80800277fa8d9'
p3006
aS'e6144e285a6011e1b4d80800277fa8d9'
p3007
aatRp3008
tp3009
a(S'bc204ed05a9411e1b4b20800277fa8d9'
p3010
g7
((lp3011
(lp3012
S'bc2050385a9411e1b4b20800277fa8d9'
p3013
aS'bc2051785a9411e1b4b20800277fa8d9'
p3014
aatRp3015
tp3016
a(S'e5ec0f6c5a6011e1b4d80800277fa8d9'
p3017
g7
((lp3018
(lp3019
S'e5ec11425a6011e1b4d80800277fa8d9'
p3020
aS'e5ec128c5a6011e1b4d80800277fa8d9'
p3021
aatRp3022
tp3023
a(S'bc2427625a9411e1b4b20800277fa8d9'
p3024
g7
((lp3025
(lp3026
S'bc2429245a9411e1b4b20800277fa8d9'
p3027
aS'bc242abe5a9411e1b4b20800277fa8d9'
p3028
aatRp3029
tp3030
a(S'bc3369fc5a9411e1b4b20800277fa8d9'
p3031
g7
((lp3032
(lp3033
S'bc336b8c5a9411e1b4b20800277fa8d9'
p3034
aS'bc336d265a9411e1b4b20800277fa8d9'
p3035
aatRp3036
tp3037
a(S'e61d42d05a6011e1b4d80800277fa8d9'
p3038
g7
((lp3039
(lp3040
S'e61d44605a6011e1b4d80800277fa8d9'
p3041
aS'e61d45b45a6011e1b4d80800277fa8d9'
p3042
aatRp3043
tp3044
a(S'bc0284b85a9411e1b4b20800277fa8d9'
p3045
g7
((lp3046
(lp3047
S'bc0287925a9411e1b4b20800277fa8d9'
p3048
aS'bc0289865a9411e1b4b20800277fa8d9'
p3049
aatRp3050
tp3051
a(S'bc2843385a9411e1b4b20800277fa8d9'
p3052
g7
((lp3053
(lp3054
S'bc2844a05a9411e1b4b20800277fa8d9'
p3055
aS'bc285ae45a9411e1b4b20800277fa8d9'
p3056
aatRp3057
tp3058
a(S'c3a1c4365a6211e18bde0800277fa8d9'
p3059
g7
((lp3060
(lp3061
S'c3a1c6845a6211e18bde0800277fa8d9'
p3062
aS'c3a1c80a5a6211e18bde0800277fa8d9'
p3063
aatRp3064
tp3065
a(S'bc2a182a5a9411e1b4b20800277fa8d9'
p3066
g7
((lp3067
(lp3068
S'bc2a1a145a9411e1b4b20800277fa8d9'
p3069
aS'bc2a1b905a9411e1b4b20800277fa8d9'
p3070
aatRp3071
tp3072
a(S'bc30bfb85a9411e1b4b20800277fa8d9'
p3073
g7
((lp3074
(lp3075
S'bc30c1205a9411e1b4b20800277fa8d9'
p3076
aS'bc30c2565a9411e1b4b20800277fa8d9'
p3077
aatRp3078
tp3079
a(S'e62086c05a6011e1b4d80800277fa8d9'
p3080
g7
((lp3081
(lp3082
S'e62088645a6011e1b4d80800277fa8d9'
p3083
aS'e6208a305a6011e1b4d80800277fa8d9'
p3084
aatRp3085
tp3086
a(S'bbee24be5a9411e1b4b20800277fa8d9'
p3087
g7
((lp3088
(lp3089
S'bbee268a5a9411e1b4b20800277fa8d9'
p3090
aS'bbee28245a9411e1b4b20800277fa8d9'
p3091
aatRp3092
tp3093
a(S'c3b47b3a5a6211e18bde0800277fa8d9'
p3094
g7
((lp3095
(lp3096
S'c3b47cfc5a6211e18bde0800277fa8d9'
p3097
aS'c3b47e825a6211e18bde0800277fa8d9'
p3098
aatRp3099
tp3100
a(S'c38f33525a6211e18bde0800277fa8d9'
p3101
g7
((lp3102
(lp3103
S'c38f35005a6211e18bde0800277fa8d9'
p3104
aS'c38f36725a6211e18bde0800277fa8d9'
p3105
aatRp3106
tp3107
a(S'bc39363e5a9411e1b4b20800277fa8d9'
p3108
g7
((lp3109
(lp3110
S'bc3937a65a9411e1b4b20800277fa8d9'
p3111
aS'bc3938dc5a9411e1b4b20800277fa8d9'
p3112
aatRp3113
tp3114
a(S'c39f19b65a6211e18bde0800277fa8d9'
p3115
g7
((lp3116
(lp3117
S'c39f1b3c5a6211e18bde0800277fa8d9'
p3118
aS'c39f1c865a6211e18bde0800277fa8d9'
p3119
aatRp3120
tp3121
a(S'c36fc2925a6211e18bde0800277fa8d9'
p3122
g7
((lp3123
(lp3124
S'c36fc65c5a6211e18bde0800277fa8d9'
p3125
aS'c36fc80a5a6211e18bde0800277fa8d9'
p3126
aatRp3127
tp3128
a(S'c3b01bd05a6211e18bde0800277fa8d9'
p3129
g7
((lp3130
(lp3131
S'c3b01d605a6211e18bde0800277fa8d9'
p3132
aS'c3b01eb45a6211e18bde0800277fa8d9'
p3133
aatRp3134
tp3135
a(S'c36f8cf05a6211e18bde0800277fa8d9'
p3136
g7
((lp3137
(lp3138
S'c36f8ebc5a6211e18bde0800277fa8d9'
p3139
aS'c36f90425a6211e18bde0800277fa8d9'
p3140
aatRp3141
tp3142
a(S'c3b39df05a6211e18bde0800277fa8d9'
p3143
g7
((lp3144
(lp3145
S'c3b39fbc5a6211e18bde0800277fa8d9'
p3146
aS'c3b3a1425a6211e18bde0800277fa8d9'
p3147
aatRp3148
tp3149
a(S'e624e95e5a6011e1b4d80800277fa8d9'
p3150
g7
((lp3151
(lp3152
S'e624eae45a6011e1b4d80800277fa8d9'
p3153
aS'e624ec245a6011e1b4d80800277fa8d9'
p3154
aatRp3155
tp3156
a(S'e5d0bdb65a6011e1b4d80800277fa8d9'
p3157
g7
((lp3158
(lp3159
S'e5d0bf5a5a6011e1b4d80800277fa8d9'
p3160
aS'e5d0c0b85a6011e1b4d80800277fa8d9'
p3161
aatRp3162
tp3163
a(S'c37e017c5a6211e18bde0800277fa8d9'
p3164
g7
((lp3165
(lp3166
S'c37e05c85a6211e18bde0800277fa8d9'
p3167
aS'c37e08985a6211e18bde0800277fa8d9'
p3168
aatRp3169
tp3170
a(S'bc2343605a9411e1b4b20800277fa8d9'
p3171
g7
((lp3172
(lp3173
S'bc2344d25a9411e1b4b20800277fa8d9'
p3174
aS'bc2346085a9411e1b4b20800277fa8d9'
p3175
aatRp3176
tp3177
a(S'c395148e5a6211e18bde0800277fa8d9'
p3178
g7
((lp3179
(lp3180
S'c39516785a6211e18bde0800277fa8d9'
p3181
aS'c39518f85a6211e18bde0800277fa8d9'
p3182
aatRp3183
tp3184
a(S'bc024ca05a9411e1b4b20800277fa8d9'
p3185
g7
((lp3186
(lp3187
S'bc024e1c5a9411e1b4b20800277fa8d9'
p3188
aS'bc024f525a9411e1b4b20800277fa8d9'
p3189
aatRp3190
tp3191
a(S'bc05493c5a9411e1b4b20800277fa8d9'
p3192
g7
((lp3193
(lp3194
S'bc054acc5a9411e1b4b20800277fa8d9'
p3195
aS'bc054c0c5a9411e1b4b20800277fa8d9'
p3196
aatRp3197
tp3198
a(S'e5f2eb205a6011e1b4d80800277fa8d9'
p3199
g7
((lp3200
(lp3201
S'e5f2eb985a6011e1b4d80800277fa8d9'
p3202
aS'e5f2ed285a6011e1b4d80800277fa8d9'
p3203
aatRp3204
tp3205
a(S'bc1b9f5c5a9411e1b4b20800277fa8d9'
p3206
g7
((lp3207
(lp3208
S'bc1ba0d85a9411e1b4b20800277fa8d9'
p3209
aS'bc1ba2185a9411e1b4b20800277fa8d9'
p3210
aatRp3211
tp3212
a(S'bc043ca45a9411e1b4b20800277fa8d9'
p3213
g7
((lp3214
(lp3215
S'bc043e345a9411e1b4b20800277fa8d9'
p3216
aS'bc043f7e5a9411e1b4b20800277fa8d9'
p3217
aatRp3218
tp3219
a(S'c3aebd305a6211e18bde0800277fa8d9'
p3220
g7
((lp3221
(lp3222
S'c3aebf565a6211e18bde0800277fa8d9'
p3223
aS'c3aec0f05a6211e18bde0800277fa8d9'
p3224
aatRp3225
tp3226
a(S'e61cd2c85a6011e1b4d80800277fa8d9'
p3227
g7
((lp3228
(lp3229
S'e61cd4805a6011e1b4d80800277fa8d9'
p3230
aS'e61cd6f65a6011e1b4d80800277fa8d9'
p3231
aatRp3232
tp3233
a(S'e5f7ee365a6011e1b4d80800277fa8d9'
p3234
g7
((lp3235
(lp3236
S'e5f7efe45a6011e1b4d80800277fa8d9'
p3237
aS'e5f7f1425a6011e1b4d80800277fa8d9'
p3238
aatRp3239
tp3240
a(S'bc316f445a9411e1b4b20800277fa8d9'
p3241
g7
((lp3242
(lp3243
S'bc3170e85a9411e1b4b20800277fa8d9'
p3244
aS'bc31725a5a9411e1b4b20800277fa8d9'
p3245
aatRp3246
tp3247
a(S'e620a6645a6011e1b4d80800277fa8d9'
p3248
g7
((lp3249
(lp3250
S'e620a8125a6011e1b4d80800277fa8d9'
p3251
aS'e620a9705a6011e1b4d80800277fa8d9'
p3252
aatRp3253
tp3254
a(S'bc30f1b85a9411e1b4b20800277fa8d9'
p3255
g7
((lp3256
(lp3257
S'bc30f3525a9411e1b4b20800277fa8d9'
p3258
aS'bc30f49c5a9411e1b4b20800277fa8d9'
p3259
aatRp3260
tp3261
a(S'c3803a145a6211e18bde0800277fa8d9'
p3262
g7
((lp3263
(lp3264
S'c3803bb85a6211e18bde0800277fa8d9'
p3265
aS'c3803d205a6211e18bde0800277fa8d9'
p3266
aatRp3267
tp3268
a(S'bc3e53bc5a9411e1b4b20800277fa8d9'
p3269
g7
((lp3270
(lp3271
S'bc3e55605a9411e1b4b20800277fa8d9'
p3272
aS'bc3e56b45a9411e1b4b20800277fa8d9'
p3273
aatRp3274
tp3275
a(S'c387b0dc5a6211e18bde0800277fa8d9'
p3276
g7
((lp3277
(lp3278
S'c387b28a5a6211e18bde0800277fa8d9'
p3279
aS'c387b3d45a6211e18bde0800277fa8d9'
p3280
aatRp3281
tp3282
a(S'c38a2d9e5a6211e18bde0800277fa8d9'
p3283
g7
((lp3284
(lp3285
S'c38a2f565a6211e18bde0800277fa8d9'
p3286
aS'c38a30b45a6211e18bde0800277fa8d9'
p3287
aatRp3288
tp3289
a(S'c37970805a6211e18bde0800277fa8d9'
p3290
g7
((lp3291
(lp3292
S'c37973825a6211e18bde0800277fa8d9'
p3293
aS'c379751c5a6211e18bde0800277fa8d9'
p3294
aatRp3295
tp3296
a(S'bc042bec5a9411e1b4b20800277fa8d9'
p3297
g7
((lp3298
(lp3299
S'bc042f205a9411e1b4b20800277fa8d9'
p3300
aS'bc04307e5a9411e1b4b20800277fa8d9'
p3301
aatRp3302
tp3303
a(S'bc3b499c5a9411e1b4b20800277fa8d9'
p3304
g7
((lp3305
(lp3306
S'bc3b4b0e5a9411e1b4b20800277fa8d9'
p3307
aS'bc3b4c4e5a9411e1b4b20800277fa8d9'
p3308
aatRp3309
tp3310
a(S'bc23790c5a9411e1b4b20800277fa8d9'
p3311
g7
((lp3312
(lp3313
S'bc237a745a9411e1b4b20800277fa8d9'
p3314
aS'bc237baa5a9411e1b4b20800277fa8d9'
p3315
aatRp3316
tp3317
a(S'c39e0b8e5a6211e18bde0800277fa8d9'
p3318
g7
((lp3319
(lp3320
S'c39e0d8c5a6211e18bde0800277fa8d9'
p3321
aS'c39e0f585a6211e18bde0800277fa8d9'
p3322
aatRp3323
tp3324
a(S'bc0bcbae5a9411e1b4b20800277fa8d9'
p3325
g7
((lp3326
(lp3327
S'bc0bcd0c5a9411e1b4b20800277fa8d9'
p3328
aS'bc0bcf005a9411e1b4b20800277fa8d9'
p3329
aatRp3330
tp3331
a(S'e5e5de6c5a6011e1b4d80800277fa8d9'
p3332
g7
((lp3333
(lp3334
S'e5e5e0385a6011e1b4d80800277fa8d9'
p3335
aS'e5e5e1965a6011e1b4d80800277fa8d9'
p3336
aatRp3337
tp3338
a(S'e6035a145a6011e1b4d80800277fa8d9'
p3339
g7
((lp3340
(lp3341
S'e6035bc25a6011e1b4d80800277fa8d9'
p3342
aS'e6035d165a6011e1b4d80800277fa8d9'
p3343
aatRp3344
tp3345
a(S'c38ab7285a6211e18bde0800277fa8d9'
p3346
g7
((lp3347
(lp3348
S'c38ab8fe5a6211e18bde0800277fa8d9'
p3349
aS'c38aba705a6211e18bde0800277fa8d9'
p3350
aatRp3351
tp3352
a(S'bc3ba27a5a9411e1b4b20800277fa8d9'
p3353
g7
((lp3354
(lp3355
S'bc3ba3ec5a9411e1b4b20800277fa8d9'
p3356
aS'bc3ba5225a9411e1b4b20800277fa8d9'
p3357
aatRp3358
tp3359
a(S'e60b53545a6011e1b4d80800277fa8d9'
p3360
g7
((lp3361
(lp3362
S'e60b55025a6011e1b4d80800277fa8d9'
p3363
aS'e60b56565a6011e1b4d80800277fa8d9'
p3364
aatRp3365
tp3366
a(S'e5fcb2405a6011e1b4d80800277fa8d9'
p3367
g7
((lp3368
(lp3369
S'e5fcb3e45a6011e1b4d80800277fa8d9'
p3370
aS'e5fcb5425a6011e1b4d80800277fa8d9'
p3371
aatRp3372
tp3373
a(S'c35420145a6211e18bde0800277fa8d9'
p3374
g7
((lp3375
(lp3376
S'c35423025a6211e18bde0800277fa8d9'
p3377
aS'c354244c5a6211e18bde0800277fa8d9'
p3378
aatRp3379
tp3380
a(S'bc245cb45a9411e1b4b20800277fa8d9'
p3381
g7
((lp3382
(lp3383
S'bc245e4e5a9411e1b4b20800277fa8d9'
p3384
aS'bc245fa25a9411e1b4b20800277fa8d9'
p3385
aatRp3386
tp3387
a(S'bc0264c45a9411e1b4b20800277fa8d9'
p3388
g7
((lp3389
(lp3390
S'bc02664a5a9411e1b4b20800277fa8d9'
p3391
aS'bc0267805a9411e1b4b20800277fa8d9'
p3392
aatRp3393
tp3394
a(S'c38e39165a6211e18bde0800277fa8d9'
p3395
g7
((lp3396
(lp3397
S'c38e3ba05a6211e18bde0800277fa8d9'
p3398
aS'c38e3d085a6211e18bde0800277fa8d9'
p3399
aatRp3400
tp3401
a(S'bc047e265a9411e1b4b20800277fa8d9'
p3402
g7
((lp3403
(lp3404
S'bc047fde5a9411e1b4b20800277fa8d9'
p3405
aS'bc0481785a9411e1b4b20800277fa8d9'
p3406
aatRp3407
tp3408
a(S'e5e5618a5a6011e1b4d80800277fa8d9'
p3409
g7
((lp3410
(lp3411
S'e5e567845a6011e1b4d80800277fa8d9'
p3412
aS'e5e5695a5a6011e1b4d80800277fa8d9'
p3413
aatRp3414
tp3415
a(S'bc414bc65a9411e1b4b20800277fa8d9'
p3416
g7
((lp3417
(lp3418
S'bc414e0a5a9411e1b4b20800277fa8d9'
p3419
aS'bc414fe05a9411e1b4b20800277fa8d9'
p3420
aatRp3421
tp3422
a(S'e5f0917c5a6011e1b4d80800277fa8d9'
p3423
g7
((lp3424
(lp3425
S'e5f0917d5a6011e1b4d80800277fa8d9'
p3426
aS'e5f092085a6011e1b4d80800277fa8d9'
p3427
aatRp3428
tp3429
a(S'e6019e365a6011e1b4d80800277fa8d9'
p3430
g7
((lp3431
(lp3432
S'e6019f085a6011e1b4d80800277fa8d9'
p3433
aS'e601a0665a6011e1b4d80800277fa8d9'
p3434
aatRp3435
tp3436
a(S'e5c754925a6011e1b4d80800277fa8d9'
p3437
g7
((lp3438
(lp3439
S'e5c755aa5a6011e1b4d80800277fa8d9'
p3440
aS'e5c757765a6011e1b4d80800277fa8d9'
p3441
aatRp3442
tp3443
a(S'e6160d945a6011e1b4d80800277fa8d9'
p3444
g7
((lp3445
(lp3446
S'e6160f9c5a6011e1b4d80800277fa8d9'
p3447
aS'e61611725a6011e1b4d80800277fa8d9'
p3448
aatRp3449
tp3450
a(S'c3af115e5a6211e18bde0800277fa8d9'
p3451
g7
((lp3452
(lp3453
S'c3af13525a6211e18bde0800277fa8d9'
p3454
aS'c3af14d85a6211e18bde0800277fa8d9'
p3455
aatRp3456
tp3457
a(S'e5fe628e5a6011e1b4d80800277fa8d9'
p3458
g7
((lp3459
(lp3460
S'e5fe64825a6011e1b4d80800277fa8d9'
p3461
aS'e5fe66125a6011e1b4d80800277fa8d9'
p3462
aatRp3463
tp3464
a(S'bc348a945a9411e1b4b20800277fa8d9'
p3465
g7
((lp3466
(lp3467
S'bc348c245a9411e1b4b20800277fa8d9'
p3468
aS'bc348de65a9411e1b4b20800277fa8d9'
p3469
aatRp3470
tp3471
a(S'c360a76c5a6211e18bde0800277fa8d9'
p3472
g7
((lp3473
(lp3474
S'c360a9245a6211e18bde0800277fa8d9'
p3475
aS'c360aa785a6211e18bde0800277fa8d9'
p3476
aatRp3477
tp3478
a(S'e61859505a6011e1b4d80800277fa8d9'
p3479
g7
((lp3480
(lp3481
S'e6185b265a6011e1b4d80800277fa8d9'
p3482
aS'e6185c985a6011e1b4d80800277fa8d9'
p3483
aatRp3484
tp3485
a(S'bc2cd06a5a9411e1b4b20800277fa8d9'
p3486
g7
((lp3487
(lp3488
S'bc2cd1f05a9411e1b4b20800277fa8d9'
p3489
aS'bc2cd3445a9411e1b4b20800277fa8d9'
p3490
aatRp3491
tp3492
a(S'e62173dc5a6011e1b4d80800277fa8d9'
p3493
g7
((lp3494
(lp3495
S'e62175d05a6011e1b4d80800277fa8d9'
p3496
aS'e62177885a6011e1b4d80800277fa8d9'
p3497
aatRp3498
tp3499
a(S'bc146e085a9411e1b4b20800277fa8d9'
p3500
g7
((lp3501
(lp3502
S'bc146fa25a9411e1b4b20800277fa8d9'
p3503
aS'bc1470ec5a9411e1b4b20800277fa8d9'
p3504
aatRp3505
tp3506
a(S'e5d662a25a6011e1b4d80800277fa8d9'
p3507
g7
((lp3508
(lp3509
S'e5d6643c5a6011e1b4d80800277fa8d9'
p3510
aS'e5d665905a6011e1b4d80800277fa8d9'
p3511
aatRp3512
tp3513
a(S'c382bed85a6211e18bde0800277fa8d9'
p3514
g7
((lp3515
(lp3516
S'c382c05e5a6211e18bde0800277fa8d9'
p3517
aS'c382c1a85a6211e18bde0800277fa8d9'
p3518
aatRp3519
tp3520
a(S'bc13ac525a9411e1b4b20800277fa8d9'
p3521
g7
((lp3522
(lp3523
S'bc13ae145a9411e1b4b20800277fa8d9'
p3524
aS'bc13afae5a9411e1b4b20800277fa8d9'
p3525
aatRp3526
tp3527
a(S'bc036cca5a9411e1b4b20800277fa8d9'
p3528
g7
((lp3529
(lp3530
S'bc036e505a9411e1b4b20800277fa8d9'
p3531
aS'bc036f9a5a9411e1b4b20800277fa8d9'
p3532
aatRp3533
tp3534
a(S'c35b70305a6211e18bde0800277fa8d9'
p3535
g7
((lp3536
(lp3537
S'c35b72605a6211e18bde0800277fa8d9'
p3538
aS'c35b73dc5a6211e18bde0800277fa8d9'
p3539
aatRp3540
tp3541
a(S'e612e8bc5a6011e1b4d80800277fa8d9'
p3542
g7
((lp3543
(lp3544
S'e612ea4c5a6011e1b4d80800277fa8d9'
p3545
aS'e612eba05a6011e1b4d80800277fa8d9'
p3546
aatRp3547
tp3548
a(S'e6148a1e5a6011e1b4d80800277fa8d9'
p3549
g7
((lp3550
(lp3551
S'e6148bfe5a6011e1b4d80800277fa8d9'
p3552
aS'e6148d3e5a6011e1b4d80800277fa8d9'
p3553
aatRp3554
tp3555
a(S'c39da1265a6211e18bde0800277fa8d9'
p3556
g7
((lp3557
(lp3558
S'c39da32e5a6211e18bde0800277fa8d9'
p3559
aS'c39da7f25a6211e18bde0800277fa8d9'
p3560
aatRp3561
tp3562
a(S'bbf7bb5a5a9411e1b4b20800277fa8d9'
p3563
g7
((lp3564
(lp3565
S'bbf8bb365a9411e1b4b20800277fa8d9'
p3566
aS'bbf8c0a45a9411e1b4b20800277fa8d9'
p3567
aatRp3568
tp3569
a(S'e5ef3c785a6011e1b4d80800277fa8d9'
p3570
g7
((lp3571
(lp3572
S'e5ef3de05a6011e1b4d80800277fa8d9'
p3573
aS'e5ef3f705a6011e1b4d80800277fa8d9'
p3574
aatRp3575
tp3576
a(S'bc09d1825a9411e1b4b20800277fa8d9'
p3577
g7
((lp3578
(lp3579
S'bc09d36c5a9411e1b4b20800277fa8d9'
p3580
aS'bc09d51a5a9411e1b4b20800277fa8d9'
p3581
aatRp3582
tp3583
a(S'e5ec1e945a6011e1b4d80800277fa8d9'
p3584
g7
((lp3585
(lp3586
S'e5ec20245a6011e1b4d80800277fa8d9'
p3587
aS'e5ec21645a6011e1b4d80800277fa8d9'
p3588
aatRp3589
tp3590
a(S'e60d70125a6011e1b4d80800277fa8d9'
p3591
g7
((lp3592
(lp3593
S'e60d71fc5a6011e1b4d80800277fa8d9'
p3594
aS'e60d73825a6011e1b4d80800277fa8d9'
p3595
aatRp3596
tp3597
a(S'c37924fe5a6211e18bde0800277fa8d9'
p3598
g7
((lp3599
(lp3600
S'c37927105a6211e18bde0800277fa8d9'
p3601
aS'c37928825a6211e18bde0800277fa8d9'
p3602
aatRp3603
tp3604
a(S'e61ce2ae5a6011e1b4d80800277fa8d9'
p3605
g7
((lp3606
(lp3607
S'e61ce4345a6011e1b4d80800277fa8d9'
p3608
aS'e61ce57e5a6011e1b4d80800277fa8d9'
p3609
aatRp3610
tp3611
a(S'e5d27b105a6011e1b4d80800277fa8d9'
p3612
g7
((lp3613
(lp3614
S'e5d27c965a6011e1b4d80800277fa8d9'
p3615
aS'e5d27de05a6011e1b4d80800277fa8d9'
p3616
aatRp3617
tp3618
a(S'c38d88545a6211e18bde0800277fa8d9'
p3619
g7
((lp3620
(lp3621
S'c38d8a0c5a6211e18bde0800277fa8d9'
p3622
aS'c38d8b605a6211e18bde0800277fa8d9'
p3623
aatRp3624
tp3625
a(S'bc0339305a9411e1b4b20800277fa8d9'
p3626
g7
((lp3627
(lp3628
S'bc033ae85a9411e1b4b20800277fa8d9'
p3629
aS'bc033c785a9411e1b4b20800277fa8d9'
p3630
aatRp3631
tp3632
a(S'e60d4d305a6011e1b4d80800277fa8d9'
p3633
g7
((lp3634
(lp3635
S'e60d4efc5a6011e1b4d80800277fa8d9'
p3636
aS'e60d50825a6011e1b4d80800277fa8d9'
p3637
aatRp3638
tp3639
a(S'c3a3d58c5a6211e18bde0800277fa8d9'
p3640
g7
((lp3641
(lp3642
S'c3a3d7585a6211e18bde0800277fa8d9'
p3643
aS'c3a3da0a5a6211e18bde0800277fa8d9'
p3644
aatRp3645
tp3646
a(S'c37ec6de5a6211e18bde0800277fa8d9'
p3647
g7
((lp3648
(lp3649
S'c37ec6df5a6211e18bde0800277fa8d9'
p3650
aS'c37ec6e05a6211e18bde0800277fa8d9'
p3651
aatRp3652
tp3653
a(S'bc3c6ad45a9411e1b4b20800277fa8d9'
p3654
g7
((lp3655
(lp3656
S'bc3c6c465a9411e1b4b20800277fa8d9'
p3657
aS'bc3c6d7c5a9411e1b4b20800277fa8d9'
p3658
aatRp3659
tp3660
a(S'e619f56c5a6011e1b4d80800277fa8d9'
p3661
g7
((lp3662
(lp3663
S'e619f9405a6011e1b4d80800277fa8d9'
p3664
aS'e619fa9e5a6011e1b4d80800277fa8d9'
p3665
aatRp3666
tp3667
a(S'bc117acc5a9411e1b4b20800277fa8d9'
p3668
g7
((lp3669
(lp3670
S'bc117c705a9411e1b4b20800277fa8d9'
p3671
aS'bc117db05a9411e1b4b20800277fa8d9'
p3672
aatRp3673
tp3674
a(S'c37b17fa5a6211e18bde0800277fa8d9'
p3675
g7
((lp3676
(lp3677
S'c37b19945a6211e18bde0800277fa8d9'
p3678
aS'c37b1af25a6211e18bde0800277fa8d9'
p3679
aatRp3680
tp3681
a(S'bc22ec085a9411e1b4b20800277fa8d9'
p3682
g7
((lp3683
(lp3684
S'bc22edac5a9411e1b4b20800277fa8d9'
p3685
aS'bc22fdec5a9411e1b4b20800277fa8d9'
p3686
aatRp3687
tp3688
a(S'c39ed5505a6211e18bde0800277fa8d9'
p3689
g7
((lp3690
(lp3691
S'c39ed6e05a6211e18bde0800277fa8d9'
p3692
aS'c39ed82a5a6211e18bde0800277fa8d9'
p3693
aatRp3694
tp3695
a(S'bc32f22e5a9411e1b4b20800277fa8d9'
p3696
g7
((lp3697
(lp3698
S'bc32f3be5a9411e1b4b20800277fa8d9'
p3699
aS'bc32f5085a9411e1b4b20800277fa8d9'
p3700
aatRp3701
tp3702
a(S'bc11c68a5a9411e1b4b20800277fa8d9'
p3703
g7
((lp3704
(lp3705
S'bc11c8385a9411e1b4b20800277fa8d9'
p3706
aS'bc11c9825a9411e1b4b20800277fa8d9'
p3707
aatRp3708
tp3709
a(S'e6064eae5a6011e1b4d80800277fa8d9'
p3710
g7
((lp3711
(lp3712
S'e606505c5a6011e1b4d80800277fa8d9'
p3713
aS'e60651c45a6011e1b4d80800277fa8d9'
p3714
aatRp3715
tp3716
a(S'e5e630925a6011e1b4d80800277fa8d9'
p3717
g7
((lp3718
(lp3719
S'e5e630935a6011e1b4d80800277fa8d9'
p3720
aS'e5e632185a6011e1b4d80800277fa8d9'
p3721
aatRp3722
tp3723
a(S'bc3114e05a9411e1b4b20800277fa8d9'
p3724
g7
((lp3725
(lp3726
S'bc3116525a9411e1b4b20800277fa8d9'
p3727
aS'bc31177e5a9411e1b4b20800277fa8d9'
p3728
aatRp3729
tp3730
a(S'e606c3b65a6011e1b4d80800277fa8d9'
p3731
g7
((lp3732
(lp3733
S'e606c5465a6011e1b4d80800277fa8d9'
p3734
aS'e606c6a45a6011e1b4d80800277fa8d9'
p3735
aatRp3736
tp3737
a(S'e5f272305a6011e1b4d80800277fa8d9'
p3738
g7
((lp3739
(lp3740
S'e5f273a25a6011e1b4d80800277fa8d9'
p3741
aS'e5f274e25a6011e1b4d80800277fa8d9'
p3742
aatRp3743
tp3744
a(S'c35327865a6211e18bde0800277fa8d9'
p3745
g7
((lp3746
(lp3747
S'c3532aa65a6211e18bde0800277fa8d9'
p3748
aS'c3532c5e5a6211e18bde0800277fa8d9'
p3749
aatRp3750
tp3751
a(S'e619e02c5a6011e1b4d80800277fa8d9'
p3752
g7
((lp3753
(lp3754
S'e619e1b25a6011e1b4d80800277fa8d9'
p3755
aS'e619e3425a6011e1b4d80800277fa8d9'
p3756
aatRp3757
tp3758
a(S'c35a36a25a6211e18bde0800277fa8d9'
p3759
g7
((lp3760
(lp3761
S'c35a38465a6211e18bde0800277fa8d9'
p3762
aS'c35a39a45a6211e18bde0800277fa8d9'
p3763
aatRp3764
tp3765
a(S'e5fbe0905a6011e1b4d80800277fa8d9'
p3766
g7
((lp3767
(lp3768
S'e5fbe2345a6011e1b4d80800277fa8d9'
p3769
aS'e5fbe3a65a6011e1b4d80800277fa8d9'
p3770
aatRp3771
tp3772
a(S'e5e79bda5a6011e1b4d80800277fa8d9'
p3773
g7
((lp3774
(lp3775
S'e5e79d925a6011e1b4d80800277fa8d9'
p3776
aS'e5e79f045a6011e1b4d80800277fa8d9'
p3777
aatRp3778
tp3779
a(S'bbfd4fc05a9411e1b4b20800277fa8d9'
p3780
g7
((lp3781
(lp3782
S'bbfd515a5a9411e1b4b20800277fa8d9'
p3783
aS'bbfd52ae5a9411e1b4b20800277fa8d9'
p3784
aatRp3785
tp3786
a(S'e622e69a5a6011e1b4d80800277fa8d9'
p3787
g7
((lp3788
(lp3789
S'e622e82a5a6011e1b4d80800277fa8d9'
p3790
aS'e622e97e5a6011e1b4d80800277fa8d9'
p3791
aatRp3792
tp3793
a(S'e5e47cc05a6011e1b4d80800277fa8d9'
p3794
g7
((lp3795
(lp3796
S'e5e480085a6011e1b4d80800277fa8d9'
p3797
aS'e5e481ca5a6011e1b4d80800277fa8d9'
p3798
aatRp3799
tp3800
a(S'bbfce2d85a9411e1b4b20800277fa8d9'
p3801
g7
((lp3802
(lp3803
S'bbfce4725a9411e1b4b20800277fa8d9'
p3804
aS'bbfce5bc5a9411e1b4b20800277fa8d9'
p3805
aatRp3806
tp3807
a(S'c37a1cc45a6211e18bde0800277fa8d9'
p3808
g7
((lp3809
(lp3810
S'c37a1e7c5a6211e18bde0800277fa8d9'
p3811
aS'c37a1fee5a6211e18bde0800277fa8d9'
p3812
aatRp3813
tp3814
a(S'bc0655fc5a9411e1b4b20800277fa8d9'
p3815
g7
((lp3816
(lp3817
S'bc0657645a9411e1b4b20800277fa8d9'
p3818
aS'bc06589a5a9411e1b4b20800277fa8d9'
p3819
aatRp3820
tp3821
a(S'c35b3f705a6211e18bde0800277fa8d9'
p3822
g7
((lp3823
(lp3824
S'c35b41325a6211e18bde0800277fa8d9'
p3825
aS'c35b42a45a6211e18bde0800277fa8d9'
p3826
aatRp3827
tp3828
a(S'c389edfc5a6211e18bde0800277fa8d9'
p3829
g7
((lp3830
(lp3831
S'c389efd25a6211e18bde0800277fa8d9'
p3832
aS'c389f2fc5a6211e18bde0800277fa8d9'
p3833
aatRp3834
tp3835
a(S'bc09e2305a9411e1b4b20800277fa8d9'
p3836
g7
((lp3837
(lp3838
S'bc09e3ac5a9411e1b4b20800277fa8d9'
p3839
aS'bc09e4f65a9411e1b4b20800277fa8d9'
p3840
aatRp3841
tp3842
a(S'e5d19a425a6011e1b4d80800277fa8d9'
p3843
g7
((lp3844
(lp3845
S'e5d19c5e5a6011e1b4d80800277fa8d9'
p3846
aS'e5d19dc65a6011e1b4d80800277fa8d9'
p3847
aatRp3848
tp3849
a(S'e5bf84565a6011e1b4d80800277fa8d9'
p3850
g7
((lp3851
(lp3852
S'e5bf85fa5a6011e1b4d80800277fa8d9'
p3853
aS'e5bf87585a6011e1b4d80800277fa8d9'
p3854
aatRp3855
tp3856
a(S'bc16a1d25a9411e1b4b20800277fa8d9'
p3857
g7
((lp3858
(lp3859
S'bc16a3b25a9411e1b4b20800277fa8d9'
p3860
aS'bc16a5565a9411e1b4b20800277fa8d9'
p3861
aatRp3862
tp3863
a(S'bc38b97a5a9411e1b4b20800277fa8d9'
p3864
g7
((lp3865
(lp3866
S'bc38bb0a5a9411e1b4b20800277fa8d9'
p3867
aS'bc38ea805a9411e1b4b20800277fa8d9'
p3868
aatRp3869
tp3870
a(S'c39a3c705a6211e18bde0800277fa8d9'
p3871
g7
((lp3872
(lp3873
S'c39a3e1e5a6211e18bde0800277fa8d9'
p3874
aS'c39a3f865a6211e18bde0800277fa8d9'
p3875
aatRp3876
tp3877
a(S'c38176ea5a6211e18bde0800277fa8d9'
p3878
g7
((lp3879
(lp3880
S'c38178845a6211e18bde0800277fa8d9'
p3881
aS'c38179d85a6211e18bde0800277fa8d9'
p3882
aatRp3883
tp3884
a(S'c3a3a79c5a6211e18bde0800277fa8d9'
p3885
g7
((lp3886
(lp3887
S'c3a3a8465a6211e18bde0800277fa8d9'
p3888
aS'c3a3ab025a6211e18bde0800277fa8d9'
p3889
aatRp3890
tp3891
a(S'e5ecedb05a6011e1b4d80800277fa8d9'
p3892
g7
((lp3893
(lp3894
S'e5ecef4a5a6011e1b4d80800277fa8d9'
p3895
aS'e5ecf1345a6011e1b4d80800277fa8d9'
p3896
aatRp3897
tp3898
a(S'bc3b75a25a9411e1b4b20800277fa8d9'
p3899
g7
((lp3900
(lp3901
S'bc3b771e5a9411e1b4b20800277fa8d9'
p3902
aS'bc3b78545a9411e1b4b20800277fa8d9'
p3903
aatRp3904
tp3905
a(S'c3a8abf25a6211e18bde0800277fa8d9'
p3906
g7
((lp3907
(lp3908
S'c3a8abf35a6211e18bde0800277fa8d9'
p3909
aS'c3a8abf45a6211e18bde0800277fa8d9'
p3910
aatRp3911
tp3912
a(S'e5bcf7cc5a6011e1b4d80800277fa8d9'
p3913
g7
((lp3914
(lp3915
S'e5bcfa9c5a6011e1b4d80800277fa8d9'
p3916
aS'e5bcfc5e5a6011e1b4d80800277fa8d9'
p3917
aatRp3918
tp3919
a(S'bc40879a5a9411e1b4b20800277fa8d9'
p3920
g7
((lp3921
(lp3922
S'bc4089205a9411e1b4b20800277fa8d9'
p3923
aS'bc408a6a5a9411e1b4b20800277fa8d9'
p3924
aatRp3925
tp3926
a(S'e5d4cb905a6011e1b4d80800277fa8d9'
p3927
g7
((lp3928
(lp3929
S'e5d4cd485a6011e1b4d80800277fa8d9'
p3930
aS'e5d4ced85a6011e1b4d80800277fa8d9'
p3931
aatRp3932
tp3933
a(S'bc1dd7fe5a9411e1b4b20800277fa8d9'
p3934
g7
((lp3935
(lp3936
S'bc1dd95c5a9411e1b4b20800277fa8d9'
p3937
aS'bc1dda925a9411e1b4b20800277fa8d9'
p3938
aatRp3939
tp3940
a(S'bc3975725a9411e1b4b20800277fa8d9'
p3941
g7
((lp3942
(lp3943
S'bc3977165a9411e1b4b20800277fa8d9'
p3944
aS'bc39786a5a9411e1b4b20800277fa8d9'
p3945
aatRp3946
tp3947
a(S'e61c2c425a6011e1b4d80800277fa8d9'
p3948
g7
((lp3949
(lp3950
S'e61c2e0e5a6011e1b4d80800277fa8d9'
p3951
aS'e61c2f765a6011e1b4d80800277fa8d9'
p3952
aatRp3953
tp3954
a(S'bc0f2c5e5a9411e1b4b20800277fa8d9'
p3955
g7
((lp3956
(lp3957
S'bc0f2de45a9411e1b4b20800277fa8d9'
p3958
aS'bc0f2f2e5a9411e1b4b20800277fa8d9'
p3959
aatRp3960
tp3961
a(S'c3806a525a6211e18bde0800277fa8d9'
p3962
g7
((lp3963
(lp3964
S'c3806a535a6211e18bde0800277fa8d9'
p3965
aS'c3806a545a6211e18bde0800277fa8d9'
p3966
aatRp3967
tp3968
a(S'c3a633b85a6211e18bde0800277fa8d9'
p3969
g7
((lp3970
(lp3971
S'c3a635485a6211e18bde0800277fa8d9'
p3972
aS'c3a6369c5a6211e18bde0800277fa8d9'
p3973
aatRp3974
tp3975
a(S'c3534bd05a6211e18bde0800277fa8d9'
p3976
g7
((lp3977
(lp3978
S'c3534d7e5a6211e18bde0800277fa8d9'
p3979
aS'c3534ee65a6211e18bde0800277fa8d9'
p3980
aatRp3981
tp3982
a(S'c36648c05a6211e18bde0800277fa8d9'
p3983
g7
((lp3984
(lp3985
S'c36648de5a6211e18bde0800277fa8d9'
p3986
aS'c36648df5a6211e18bde0800277fa8d9'
p3987
aatRp3988
tp3989
a(S'c3b43a085a6211e18bde0800277fa8d9'
p3990
g7
((lp3991
(lp3992
S'c3b43bd45a6211e18bde0800277fa8d9'
p3993
aS'c3b43d505a6211e18bde0800277fa8d9'
p3994
aatRp3995
tp3996
a(S'c392760c5a6211e18bde0800277fa8d9'
p3997
g7
((lp3998
(lp3999
S'c39277ba5a6211e18bde0800277fa8d9'
p4000
aS'c39279185a6211e18bde0800277fa8d9'
p4001
aatRp4002
tp4003
a(S'c39fdf5e5a6211e18bde0800277fa8d9'
p4004
g7
((lp4005
(lp4006
S'c39fe1025a6211e18bde0800277fa8d9'
p4007
aS'c39fe2565a6211e18bde0800277fa8d9'
p4008
aatRp4009
tp4010
a(S'c35c6d285a6211e18bde0800277fa8d9'
p4011
g7
((lp4012
(lp4013
S'c35e328e5a6211e18bde0800277fa8d9'
p4014
aS'c35e345a5a6211e18bde0800277fa8d9'
p4015
aatRp4016
tp4017
a(S'bbf97be85a9411e1b4b20800277fa8d9'
p4018
g7
((lp4019
(lp4020
S'bbf97d6e5a9411e1b4b20800277fa8d9'
p4021
aS'bbf987145a9411e1b4b20800277fa8d9'
p4022
aatRp4023
tp4024
a(S'c36f7aa85a6211e18bde0800277fa8d9'
p4025
g7
((lp4026
(lp4027
S'c36f7c745a6211e18bde0800277fa8d9'
p4028
aS'c36f7dfa5a6211e18bde0800277fa8d9'
p4029
aatRp4030
tp4031
a(S'c36a3ab65a6211e18bde0800277fa8d9'
p4032
g7
((lp4033
(lp4034
S'c36a3ca05a6211e18bde0800277fa8d9'
p4035
aS'c36a3e3a5a6211e18bde0800277fa8d9'
p4036
aatRp4037
tp4038
a(S'bc2ba5465a9411e1b4b20800277fa8d9'
p4039
g7
((lp4040
(lp4041
S'bc2ba7305a9411e1b4b20800277fa8d9'
p4042
aS'bc2ba8705a9411e1b4b20800277fa8d9'
p4043
aatRp4044
tp4045
a(S'e5d60f6e5a6011e1b4d80800277fa8d9'
p4046
g7
((lp4047
(lp4048
S'e5d6118a5a6011e1b4d80800277fa8d9'
p4049
aS'e5d612f25a6011e1b4d80800277fa8d9'
p4050
aatRp4051
tp4052
a(S'c39cb0685a6211e18bde0800277fa8d9'
p4053
g7
((lp4054
(lp4055
S'c39cb2845a6211e18bde0800277fa8d9'
p4056
aS'c39cb4465a6211e18bde0800277fa8d9'
p4057
aatRp4058
tp4059
a(S'c37b8de85a6211e18bde0800277fa8d9'
p4060
g7
((lp4061
(lp4062
S'c37b8fb45a6211e18bde0800277fa8d9'
p4063
aS'c37b91305a6211e18bde0800277fa8d9'
p4064
aatRp4065
tp4066
a(S'bc0418a05a9411e1b4b20800277fa8d9'
p4067
g7
((lp4068
(lp4069
S'bc041ada5a9411e1b4b20800277fa8d9'
p4070
aS'bc041cb05a9411e1b4b20800277fa8d9'
p4071
aatRp4072
tp4073
a(S'e61b7edc5a6011e1b4d80800277fa8d9'
p4074
g7
((lp4075
(lp4076
S'e61b80805a6011e1b4d80800277fa8d9'
p4077
aS'e61b81e85a6011e1b4d80800277fa8d9'
p4078
aatRp4079
tp4080
a(S'e5cad0fe5a6011e1b4d80800277fa8d9'
p4081
g7
((lp4082
(lp4083
S'e5cad3065a6011e1b4d80800277fa8d9'
p4084
aS'e5cad4c85a6011e1b4d80800277fa8d9'
p4085
aatRp4086
tp4087
a(S'e610ab4c5a6011e1b4d80800277fa8d9'
p4088
g7
((lp4089
(lp4090
S'e610ad225a6011e1b4d80800277fa8d9'
p4091
aS'e610ae805a6011e1b4d80800277fa8d9'
p4092
aatRp4093
tp4094
a(S'e6043e165a6011e1b4d80800277fa8d9'
p4095
g7
((lp4096
(lp4097
S'e6043fb05a6011e1b4d80800277fa8d9'
p4098
aS'e60441045a6011e1b4d80800277fa8d9'
p4099
aatRp4100
tp4101
a(S'c3897a165a6211e18bde0800277fa8d9'
p4102
g7
((lp4103
(lp4104
S'c3897c285a6211e18bde0800277fa8d9'
p4105
aS'c3897d905a6211e18bde0800277fa8d9'
p4106
aatRp4107
tp4108
a(S'e5d1cad05a6011e1b4d80800277fa8d9'
p4109
g7
((lp4110
(lp4111
S'e5d1cc745a6011e1b4d80800277fa8d9'
p4112
aS'e5d1cdd25a6011e1b4d80800277fa8d9'
p4113
aatRp4114
tp4115
a(S'bc3b1e185a9411e1b4b20800277fa8d9'
p4116
g7
((lp4117
(lp4118
S'bc3b1fa85a9411e1b4b20800277fa8d9'
p4119
aS'bc3b20fc5a9411e1b4b20800277fa8d9'
p4120
aatRp4121
tp4122
a(S'e5df35b25a6011e1b4d80800277fa8d9'
p4123
g7
((lp4124
(lp4125
S'e5df37925a6011e1b4d80800277fa8d9'
p4126
aS'e5df39185a6011e1b4d80800277fa8d9'
p4127
aatRp4128
tp4129
a(S'c38b13125a6211e18bde0800277fa8d9'
p4130
g7
((lp4131
(lp4132
S'c38b14b65a6211e18bde0800277fa8d9'
p4133
aS'c38b16145a6211e18bde0800277fa8d9'
p4134
aatRp4135
tp4136
a(S'c396e0ac5a6211e18bde0800277fa8d9'
p4137
g7
((lp4138
(lp4139
S'c396e2785a6211e18bde0800277fa8d9'
p4140
aS'c396e3fe5a6211e18bde0800277fa8d9'
p4141
aatRp4142
tp4143
a(S'bc1e3cda5a9411e1b4b20800277fa8d9'
p4144
g7
((lp4145
(lp4146
S'bc1e3e4c5a9411e1b4b20800277fa8d9'
p4147
aS'bc1e3f8c5a9411e1b4b20800277fa8d9'
p4148
aatRp4149
tp4150
a(S'e60787b05a6011e1b4d80800277fa8d9'
p4151
g7
((lp4152
(lp4153
S'e607894a5a6011e1b4d80800277fa8d9'
p4154
aS'e6078a9e5a6011e1b4d80800277fa8d9'
p4155
aatRp4156
tp4157
a(S'e5fd478c5a6011e1b4d80800277fa8d9'
p4158
g7
((lp4159
(lp4160
S'e5fd49265a6011e1b4d80800277fa8d9'
p4161
aS'e5fd4c005a6011e1b4d80800277fa8d9'
p4162
aatRp4163
tp4164
a(S'bc1da2ca5a9411e1b4b20800277fa8d9'
p4165
g7
((lp4166
(lp4167
S'bc1da4325a9411e1b4b20800277fa8d9'
p4168
aS'bc1da5685a9411e1b4b20800277fa8d9'
p4169
aatRp4170
tp4171
a(S'c353143a5a6211e18bde0800277fa8d9'
p4172
g7
((lp4173
(lp4174
S'c35318225a6211e18bde0800277fa8d9'
p4175
aS'c353199e5a6211e18bde0800277fa8d9'
p4176
aatRp4177
tp4178
a(S'c38489f25a6211e18bde0800277fa8d9'
p4179
g7
((lp4180
(lp4181
S'c3848c365a6211e18bde0800277fa8d9'
p4182
aS'c3848da85a6211e18bde0800277fa8d9'
p4183
aatRp4184
tp4185
a(S'e61c01f45a6011e1b4d80800277fa8d9'
p4186
g7
((lp4187
(lp4188
S'e61c03ac5a6011e1b4d80800277fa8d9'
p4189
aS'e61c05145a6011e1b4d80800277fa8d9'
p4190
aatRp4191
tp4192
a(S'bbfcb5ec5a9411e1b4b20800277fa8d9'
p4193
g7
((lp4194
(lp4195
S'bbfcb75e5a9411e1b4b20800277fa8d9'
p4196
aS'bbfcb8945a9411e1b4b20800277fa8d9'
p4197
aatRp4198
tp4199
a(S'c399e9645a6211e18bde0800277fa8d9'
p4200
g7
((lp4201
(lp4202
S'c399eb1c5a6211e18bde0800277fa8d9'
p4203
aS'c399ec8e5a6211e18bde0800277fa8d9'
p4204
aatRp4205
tp4206
a(S'c3870e205a6211e18bde0800277fa8d9'
p4207
g7
((lp4208
(lp4209
S'c38710785a6211e18bde0800277fa8d9'
p4210
aS'c38712bc5a6211e18bde0800277fa8d9'
p4211
aatRp4212
tp4213
a(S'bc400e6e5a9411e1b4b20800277fa8d9'
p4214
g7
((lp4215
(lp4216
S'bc400ffe5a9411e1b4b20800277fa8d9'
p4217
aS'bc4011845a9411e1b4b20800277fa8d9'
p4218
aatRp4219
tp4220
a(S'c39f68a85a6211e18bde0800277fa8d9'
p4221
g7
((lp4222
(lp4223
S'c39f6a745a6211e18bde0800277fa8d9'
p4224
aS'c39f6c545a6211e18bde0800277fa8d9'
p4225
aatRp4226
tp4227
a(S'e5c3532e5a6011e1b4d80800277fa8d9'
p4228
g7
((lp4229
(lp4230
S'e5c3561c5a6011e1b4d80800277fa8d9'
p4231
aS'e5c358065a6011e1b4d80800277fa8d9'
p4232
aatRp4233
tp4234
a(S'bc2b90b05a9411e1b4b20800277fa8d9'
p4235
g7
((lp4236
(lp4237
S'bc2b92d65a9411e1b4b20800277fa8d9'
p4238
aS'bc2b945c5a9411e1b4b20800277fa8d9'
p4239
aatRp4240
tp4241
a(S'e5f55a0e5a6011e1b4d80800277fa8d9'
p4242
g7
((lp4243
(lp4244
S'e5f55bda5a6011e1b4d80800277fa8d9'
p4245
aS'e5f55d565a6011e1b4d80800277fa8d9'
p4246
aatRp4247
tp4248
a(S'bc08ee985a9411e1b4b20800277fa8d9'
p4249
g7
((lp4250
(lp4251
S'bc08f0145a9411e1b4b20800277fa8d9'
p4252
aS'bc08f14a5a9411e1b4b20800277fa8d9'
p4253
aatRp4254
tp4255
a(S'bc3c4c3e5a9411e1b4b20800277fa8d9'
p4256
g7
((lp4257
(lp4258
S'bc3c4de25a9411e1b4b20800277fa8d9'
p4259
aS'bc3c4f5e5a9411e1b4b20800277fa8d9'
p4260
aatRp4261
tp4262
a(S'c39c9d265a6211e18bde0800277fa8d9'
p4263
g7
((lp4264
(lp4265
S'c39c9ee85a6211e18bde0800277fa8d9'
p4266
aS'c39ca0505a6211e18bde0800277fa8d9'
p4267
aatRp4268
tp4269
a(S'bc4269665a9411e1b4b20800277fa8d9'
p4270
g7
((lp4271
(lp4272
S'bc426b325a9411e1b4b20800277fa8d9'
p4273
aS'bc426d265a9411e1b4b20800277fa8d9'
p4274
aatRp4275
tp4276
a(S'bc20f5b05a9411e1b4b20800277fa8d9'
p4277
g7
((lp4278
(lp4279
S'bc20f7545a9411e1b4b20800277fa8d9'
p4280
aS'bc20f8d05a9411e1b4b20800277fa8d9'
p4281
aatRp4282
tp4283
a(S'e611068c5a6011e1b4d80800277fa8d9'
p4284
g7
((lp4285
(lp4286
S'e611081c5a6011e1b4d80800277fa8d9'
p4287
aS'e61109e85a6011e1b4d80800277fa8d9'
p4288
aatRp4289
tp4290
a(S'e5c1b0325a6011e1b4d80800277fa8d9'
p4291
g7
((lp4292
(lp4293
S'e5c1b1cc5a6011e1b4d80800277fa8d9'
p4294
aS'e5c1b32a5a6011e1b4d80800277fa8d9'
p4295
aatRp4296
tp4297
a(S'c371b43a5a6211e18bde0800277fa8d9'
p4298
g7
((lp4299
(lp4300
S'c371b5d45a6211e18bde0800277fa8d9'
p4301
aS'c371b7465a6211e18bde0800277fa8d9'
p4302
aatRp4303
tp4304
a(S'c37aa3105a6211e18bde0800277fa8d9'
p4305
g7
((lp4306
(lp4307
S'c37aa4c85a6211e18bde0800277fa8d9'
p4308
aS'c37aa63a5a6211e18bde0800277fa8d9'
p4309
aatRp4310
tp4311
a(S'e5dde1bc5a6011e1b4d80800277fa8d9'
p4312
g7
((lp4313
(lp4314
S'e5dde3b05a6011e1b4d80800277fa8d9'
p4315
aS'e5dde5725a6011e1b4d80800277fa8d9'
p4316
aatRp4317
tp4318
a(S'e620295a5a6011e1b4d80800277fa8d9'
p4319
g7
((lp4320
(lp4321
S'e6202afe5a6011e1b4d80800277fa8d9'
p4322
aS'e6202c665a6011e1b4d80800277fa8d9'
p4323
aatRp4324
tp4325
a(S'bc16d1a25a9411e1b4b20800277fa8d9'
p4326
g7
((lp4327
(lp4328
S'bc16d35a5a9411e1b4b20800277fa8d9'
p4329
aS'bc16d4ea5a9411e1b4b20800277fa8d9'
p4330
aatRp4331
tp4332
a(S'e60aa3505a6011e1b4d80800277fa8d9'
p4333
g7
((lp4334
(lp4335
S'e60aa4e05a6011e1b4d80800277fa8d9'
p4336
aS'e60aa6a25a6011e1b4d80800277fa8d9'
p4337
aatRp4338
tp4339
a(S'c39d89665a6211e18bde0800277fa8d9'
p4340
g7
((lp4341
(lp4342
S'c39d8b645a6211e18bde0800277fa8d9'
p4343
aS'c39d8ccc5a6211e18bde0800277fa8d9'
p4344
aatRp4345
tp4346
a(S'e611ae985a6011e1b4d80800277fa8d9'
p4347
g7
((lp4348
(lp4349
S'e611b0285a6011e1b4d80800277fa8d9'
p4350
aS'e611b1725a6011e1b4d80800277fa8d9'
p4351
aatRp4352
tp4353
a(S'bbf31ba45a9411e1b4b20800277fa8d9'
p4354
g7
((lp4355
(lp4356
S'bbf31d3e5a9411e1b4b20800277fa8d9'
p4357
aS'bbf31e885a9411e1b4b20800277fa8d9'
p4358
aatRp4359
tp4360
a(S'e61f9a445a6011e1b4d80800277fa8d9'
p4361
g7
((lp4362
(lp4363
S'e61f9c9c5a6011e1b4d80800277fa8d9'
p4364
aS'e61f9e185a6011e1b4d80800277fa8d9'
p4365
aatRp4366
tp4367
a(S'bc259c145a9411e1b4b20800277fa8d9'
p4368
g7
((lp4369
(lp4370
S'bc259d7c5a9411e1b4b20800277fa8d9'
p4371
aS'bc259eb25a9411e1b4b20800277fa8d9'
p4372
aatRp4373
tp4374
a(S'e5f409245a6011e1b4d80800277fa8d9'
p4375
g7
((lp4376
(lp4377
S'e5f40af05a6011e1b4d80800277fa8d9'
p4378
aS'e5f40c765a6011e1b4d80800277fa8d9'
p4379
aatRp4380
tp4381
a(S'e5ebdc5e5a6011e1b4d80800277fa8d9'
p4382
g7
((lp4383
(lp4384
S'e5ebde0c5a6011e1b4d80800277fa8d9'
p4385
aS'e5ebdf925a6011e1b4d80800277fa8d9'
p4386
aatRp4387
tp4388
a(S'c395acfa5a6211e18bde0800277fa8d9'
p4389
g7
((lp4390
(lp4391
S'c395aec65a6211e18bde0800277fa8d9'
p4392
aS'c395b04c5a6211e18bde0800277fa8d9'
p4393
aatRp4394
tp4395
a(S'bc2662165a9411e1b4b20800277fa8d9'
p4396
g7
((lp4397
(lp4398
S'bc273ede5a9411e1b4b20800277fa8d9'
p4399
aS'bc2740f05a9411e1b4b20800277fa8d9'
p4400
aatRp4401
tp4402
a(S'e62309f45a6011e1b4d80800277fa8d9'
p4403
g7
((lp4404
(lp4405
S'e6230b8e5a6011e1b4d80800277fa8d9'
p4406
aS'e6230cec5a6011e1b4d80800277fa8d9'
p4407
aatRp4408
tp4409
a(S'bc016baa5a9411e1b4b20800277fa8d9'
p4410
g7
((lp4411
(lp4412
S'bc016d125a9411e1b4b20800277fa8d9'
p4413
aS'bc016e525a9411e1b4b20800277fa8d9'
p4414
aatRp4415
tp4416
a(S'e5c0aade5a6011e1b4d80800277fa8d9'
p4417
g7
((lp4418
(lp4419
S'e5c0ac825a6011e1b4d80800277fa8d9'
p4420
aS'e5c0adea5a6011e1b4d80800277fa8d9'
p4421
aatRp4422
tp4423
a(S'bc13c0345a9411e1b4b20800277fa8d9'
p4424
g7
((lp4425
(lp4426
S'bc13c1ba5a9411e1b4b20800277fa8d9'
p4427
aS'bc13c3045a9411e1b4b20800277fa8d9'
p4428
aatRp4429
tp4430
a(S'bbf523b85a9411e1b4b20800277fa8d9'
p4431
g7
((lp4432
(lp4433
S'bbf525705a9411e1b4b20800277fa8d9'
p4434
aS'bbf526c45a9411e1b4b20800277fa8d9'
p4435
aatRp4436
tp4437
a(S'bbef19be5a9411e1b4b20800277fa8d9'
p4438
g7
((lp4439
(lp4440
S'bbef1b585a9411e1b4b20800277fa8d9'
p4441
aS'bbef1cac5a9411e1b4b20800277fa8d9'
p4442
aatRp4443
tp4444
a(S'e5d887c65a6011e1b4d80800277fa8d9'
p4445
g7
((lp4446
(lp4447
S'e5d8899c5a6011e1b4d80800277fa8d9'
p4448
aS'e5d88b545a6011e1b4d80800277fa8d9'
p4449
aatRp4450
tp4451
a(S'c35fc7345a6211e18bde0800277fa8d9'
p4452
g7
((lp4453
(lp4454
S'c35fc89c5a6211e18bde0800277fa8d9'
p4455
aS'c35fc9d25a6211e18bde0800277fa8d9'
p4456
aatRp4457
tp4458
a(S'c374f5c85a6211e18bde0800277fa8d9'
p4459
g7
((lp4460
(lp4461
S'c374f8665a6211e18bde0800277fa8d9'
p4462
aS'c374fa005a6211e18bde0800277fa8d9'
p4463
aatRp4464
tp4465
a(S'e612b75c5a6011e1b4d80800277fa8d9'
p4466
g7
((lp4467
(lp4468
S'e612b7845a6011e1b4d80800277fa8d9'
p4469
aS'e612b91e5a6011e1b4d80800277fa8d9'
p4470
aatRp4471
tp4472
a(S'c373b2f85a6211e18bde0800277fa8d9'
p4473
g7
((lp4474
(lp4475
S'c373b5005a6211e18bde0800277fa8d9'
p4476
aS'c373b6d65a6211e18bde0800277fa8d9'
p4477
aatRp4478
tp4479
a(S'c37290765a6211e18bde0800277fa8d9'
p4480
g7
((lp4481
(lp4482
S'c37292b05a6211e18bde0800277fa8d9'
p4483
aS'c372949a5a6211e18bde0800277fa8d9'
p4484
aatRp4485
tp4486
a(S'c3aff70e5a6211e18bde0800277fa8d9'
p4487
g7
((lp4488
(lp4489
S'c3aff9d45a6211e18bde0800277fa8d9'
p4490
aS'c3affb505a6211e18bde0800277fa8d9'
p4491
aatRp4492
tp4493
a(S'bc29c87a5a9411e1b4b20800277fa8d9'
p4494
g7
((lp4495
(lp4496
S'bc29c9f65a9411e1b4b20800277fa8d9'
p4497
aS'bc29cb365a9411e1b4b20800277fa8d9'
p4498
aatRp4499
tp4500
a(S'bc166b9a5a9411e1b4b20800277fa8d9'
p4501
g7
((lp4502
(lp4503
S'bc166d345a9411e1b4b20800277fa8d9'
p4504
aS'bc166e885a9411e1b4b20800277fa8d9'
p4505
aatRp4506
tp4507
a(S'c3a803005a6211e18bde0800277fa8d9'
p4508
g7
((lp4509
(lp4510
S'c3a805085a6211e18bde0800277fa8d9'
p4511
aS'c3a806665a6211e18bde0800277fa8d9'
p4512
aatRp4513
tp4514
a(S'c39733ae5a6211e18bde0800277fa8d9'
p4515
g7
((lp4516
(lp4517
S'c39735b65a6211e18bde0800277fa8d9'
p4518
aS'c39737965a6211e18bde0800277fa8d9'
p4519
aatRp4520
tp4521
a(S'bc19d82a5a9411e1b4b20800277fa8d9'
p4522
g7
((lp4523
(lp4524
S'bc19d9f65a9411e1b4b20800277fa8d9'
p4525
aS'bc19db865a9411e1b4b20800277fa8d9'
p4526
aatRp4527
tp4528
a(S'e62417fe5a6011e1b4d80800277fa8d9'
p4529
g7
((lp4530
(lp4531
S'e62419ac5a6011e1b4d80800277fa8d9'
p4532
aS'e6241b325a6011e1b4d80800277fa8d9'
p4533
aatRp4534
tp4535
a(S'c372a1105a6211e18bde0800277fa8d9'
p4536
g7
((lp4537
(lp4538
S'c372a2aa5a6211e18bde0800277fa8d9'
p4539
aS'c372a3fe5a6211e18bde0800277fa8d9'
p4540
aatRp4541
tp4542
a(S'bbfdf3bc5a9411e1b4b20800277fa8d9'
p4543
g7
((lp4544
(lp4545
S'bbfdf5605a9411e1b4b20800277fa8d9'
p4546
aS'bbfdf6b45a9411e1b4b20800277fa8d9'
p4547
aatRp4548
tp4549
a(S'c3773bbc5a6211e18bde0800277fa8d9'
p4550
g7
((lp4551
(lp4552
S'c3773d605a6211e18bde0800277fa8d9'
p4553
aS'c3773eb45a6211e18bde0800277fa8d9'
p4554
aatRp4555
tp4556
a(S'e5de06745a6011e1b4d80800277fa8d9'
p4557
g7
((lp4558
(lp4559
S'e5de09125a6011e1b4d80800277fa8d9'
p4560
aS'e5de0cf05a6011e1b4d80800277fa8d9'
p4561
aatRp4562
tp4563
a(S'e5c539285a6011e1b4d80800277fa8d9'
p4564
g7
((lp4565
(lp4566
S'e5c53b945a6011e1b4d80800277fa8d9'
p4567
aS'e5c53d7e5a6011e1b4d80800277fa8d9'
p4568
aatRp4569
tp4570
a(S'bc1b42c85a9411e1b4b20800277fa8d9'
p4571
g7
((lp4572
(lp4573
S'bc1b44305a9411e1b4b20800277fa8d9'
p4574
aS'bc1b455c5a9411e1b4b20800277fa8d9'
p4575
aatRp4576
tp4577
a(S'e5e769125a6011e1b4d80800277fa8d9'
p4578
g7
((lp4579
(lp4580
S'e5e769135a6011e1b4d80800277fa8d9'
p4581
aS'e5e7691c5a6011e1b4d80800277fa8d9'
p4582
aatRp4583
tp4584
a(S'e5be2ffc5a6011e1b4d80800277fa8d9'
p4585
g7
((lp4586
(lp4587
S'e5be31c85a6011e1b4d80800277fa8d9'
p4588
aS'e5be33625a6011e1b4d80800277fa8d9'
p4589
aatRp4590
tp4591
a(S'e5cdb8505a6011e1b4d80800277fa8d9'
p4592
g7
((lp4593
(lp4594
S'e5cdbb7a5a6011e1b4d80800277fa8d9'
p4595
aS'e5cdbcf65a6011e1b4d80800277fa8d9'
p4596
aatRp4597
tp4598
a(S'c3a79f6e5a6211e18bde0800277fa8d9'
p4599
g7
((lp4600
(lp4601
S'c3a7a0f45a6211e18bde0800277fa8d9'
p4602
aS'c3a7a2de5a6211e18bde0800277fa8d9'
p4603
aatRp4604
tp4605
a(S'bc3919f65a9411e1b4b20800277fa8d9'
p4606
g7
((lp4607
(lp4608
S'bc391b685a9411e1b4b20800277fa8d9'
p4609
aS'bc391c9e5a9411e1b4b20800277fa8d9'
p4610
aatRp4611
tp4612
a(S'c37ea6b85a6211e18bde0800277fa8d9'
p4613
g7
((lp4614
(lp4615
S'c37ea8845a6211e18bde0800277fa8d9'
p4616
aS'c37eaa005a6211e18bde0800277fa8d9'
p4617
aatRp4618
tp4619
a(S'e61fad4a5a6011e1b4d80800277fa8d9'
p4620
g7
((lp4621
(lp4622
S'e61faf0c5a6011e1b4d80800277fa8d9'
p4623
aS'e61fb07e5a6011e1b4d80800277fa8d9'
p4624
aatRp4625
tp4626
a(S'c387d8645a6211e18bde0800277fa8d9'
p4627
g7
((lp4628
(lp4629
S'c387dbfc5a6211e18bde0800277fa8d9'
p4630
aS'c387dd8c5a6211e18bde0800277fa8d9'
p4631
aatRp4632
tp4633
a(S'bc1d61fc5a9411e1b4b20800277fa8d9'
p4634
g7
((lp4635
(lp4636
S'bc1d63a05a9411e1b4b20800277fa8d9'
p4637
aS'bc1d651c5a9411e1b4b20800277fa8d9'
p4638
aatRp4639
tp4640
a(S'bbfbc6aa5a9411e1b4b20800277fa8d9'
p4641
g7
((lp4642
(lp4643
S'bbfbc8305a9411e1b4b20800277fa8d9'
p4644
aS'bbfbc9ca5a9411e1b4b20800277fa8d9'
p4645
aatRp4646
tp4647
a(S'e60db4965a6011e1b4d80800277fa8d9'
p4648
g7
((lp4649
(lp4650
S'e60db66c5a6011e1b4d80800277fa8d9'
p4651
aS'e60db7f25a6011e1b4d80800277fa8d9'
p4652
aatRp4653
tp4654
a(S'c3a1047e5a6211e18bde0800277fa8d9'
p4655
g7
((lp4656
(lp4657
S'c3a106865a6211e18bde0800277fa8d9'
p4658
aS'c3a1085c5a6211e18bde0800277fa8d9'
p4659
aatRp4660
tp4661
a(S'c3a86d725a6211e18bde0800277fa8d9'
p4662
g7
((lp4663
(lp4664
S'c3a86f7a5a6211e18bde0800277fa8d9'
p4665
aS'c3a870ec5a6211e18bde0800277fa8d9'
p4666
aatRp4667
tp4668
a(S'c364437c5a6211e18bde0800277fa8d9'
p4669
g7
((lp4670
(lp4671
S'c364457a5a6211e18bde0800277fa8d9'
p4672
aS'c36446d85a6211e18bde0800277fa8d9'
p4673
aatRp4674
tp4675
a(S'c3828c425a6211e18bde0800277fa8d9'
p4676
g7
((lp4677
(lp4678
S'c3828dbe5a6211e18bde0800277fa8d9'
p4679
aS'c3828f125a6211e18bde0800277fa8d9'
p4680
aatRp4681
tp4682
a(S'e5d6eb005a6011e1b4d80800277fa8d9'
p4683
g7
((lp4684
(lp4685
S'e5d6ec9a5a6011e1b4d80800277fa8d9'
p4686
aS'e5d6edf85a6011e1b4d80800277fa8d9'
p4687
aatRp4688
tp4689
asS'columnfamily'
p4690
S'97e622ec5a5d11e1a8030800277fa8d9'
p4691
s.